ARM GAS  /tmp/ccPctUpA.s 			page 1


   1              		.cpu cortex-m4
   2              		.arch armv7e-m
   3              		.fpu fpv4-sp-d16
   4              		.eabi_attribute 27, 1
   5              		.eabi_attribute 28, 1
   6              		.eabi_attribute 20, 1
   7              		.eabi_attribute 21, 1
   8              		.eabi_attribute 23, 3
   9              		.eabi_attribute 24, 1
  10              		.eabi_attribute 25, 1
  11              		.eabi_attribute 26, 1
  12              		.eabi_attribute 30, 1
  13              		.eabi_attribute 34, 1
  14              		.eabi_attribute 18, 4
  15              		.file	"main.c"
  16              		.text
  17              	.Ltext0:
  18              		.cfi_sections	.debug_frame
  19              		.section	.text.UserPixelSetFunction,"ax",%progbits
  20              		.align	1
  21              		.global	UserPixelSetFunction
  22              		.syntax unified
  23              		.thumb
  24              		.thumb_func
  26              	UserPixelSetFunction:
  27              	.LVL0:
  28              	.LFB1442:
  29              		.file 1 "Core/Src/main.c"
   1:Core/Src/main.c **** /* USER CODE BEGIN Header */
   2:Core/Src/main.c **** /**
   3:Core/Src/main.c ****   ******************************************************************************
   4:Core/Src/main.c ****   * @file           : main.c
   5:Core/Src/main.c ****   * @brief          : Main program body
   6:Core/Src/main.c ****   ******************************************************************************
   7:Core/Src/main.c ****   * @attention
   8:Core/Src/main.c ****   *
   9:Core/Src/main.c ****   * <h2><center>&copy; Copyright (c) 2021 STMicroelectronics.
  10:Core/Src/main.c ****   * All rights reserved.</center></h2>
  11:Core/Src/main.c ****   *
  12:Core/Src/main.c ****   * This software component is licensed by ST under BSD 3-Clause license,
  13:Core/Src/main.c ****   * the "License"; You may not use this file except in compliance with the
  14:Core/Src/main.c ****   * License. You may obtain a copy of the License at:
  15:Core/Src/main.c ****   *                        opensource.org/licenses/BSD-3-Clause
  16:Core/Src/main.c ****   *
  17:Core/Src/main.c ****   ******************************************************************************
  18:Core/Src/main.c ****   */
  19:Core/Src/main.c **** /* USER CODE END Header */
  20:Core/Src/main.c **** /* Includes ------------------------------------------------------------------*/
  21:Core/Src/main.c **** #include "main.h"
  22:Core/Src/main.c **** #include "adc.h"
  23:Core/Src/main.c **** #include "crc.h"
  24:Core/Src/main.c **** #include "dac.h"
  25:Core/Src/main.c **** #include "dma.h"
  26:Core/Src/main.c **** #include "fdcan.h"
  27:Core/Src/main.c **** #include "i2c.h"
  28:Core/Src/main.c **** #include "quadspi.h"
  29:Core/Src/main.c **** #include "spi.h"
ARM GAS  /tmp/ccPctUpA.s 			page 2


  30:Core/Src/main.c **** #include "tim.h"
  31:Core/Src/main.c **** #include "usart.h"
  32:Core/Src/main.c **** #include "usb_device.h"
  33:Core/Src/main.c **** #include "gpio.h"
  34:Core/Src/main.c **** #include "fmc.h"
  35:Core/Src/main.c **** 
  36:Core/Src/main.c **** /* Private includes ----------------------------------------------------------*/
  37:Core/Src/main.c **** /* USER CODE BEGIN Includes */
  38:Core/Src/main.c **** #include "LED.h"
  39:Core/Src/main.c **** #include "kbd.h"
  40:Core/Src/main.c **** #include "SCI.h"
  41:Core/Src/main.c **** #include "lcd.h"
  42:Core/Src/main.c **** #include "ugui.h"
  43:Core/Src/main.c **** #include "XPT2046_touch.h"
  44:Core/Src/main.c **** #include "ColorSpaces.h"
  45:Core/Src/main.c **** #include "joystick.h"
  46:Core/Src/main.c **** #include "tetromino.h"
  47:Core/Src/main.c **** #include <stdio.h>
  48:Core/Src/main.c **** /* USER CODE END Includes */
  49:Core/Src/main.c **** 
  50:Core/Src/main.c **** /* Private typedef -----------------------------------------------------------*/
  51:Core/Src/main.c **** /* USER CODE BEGIN PTD */
  52:Core/Src/main.c **** 
  53:Core/Src/main.c **** /* USER CODE END PTD */
  54:Core/Src/main.c **** 
  55:Core/Src/main.c **** /* Private define ------------------------------------------------------------*/
  56:Core/Src/main.c **** /* USER CODE BEGIN PD */
  57:Core/Src/main.c **** #define LCD_width ILI9341_GetParam(LCD_WIDTH)
  58:Core/Src/main.c **** #define LCD_height ILI9341_GetParam(LCD_HEIGHT)
  59:Core/Src/main.c **** /* USER CODE END PD */
  60:Core/Src/main.c **** 
  61:Core/Src/main.c **** /* Private macro -------------------------------------------------------------*/
  62:Core/Src/main.c **** /* USER CODE BEGIN PM */
  63:Core/Src/main.c **** 
  64:Core/Src/main.c **** /* USER CODE END PM */
  65:Core/Src/main.c **** 
  66:Core/Src/main.c **** /* Private variables ---------------------------------------------------------*/
  67:Core/Src/main.c **** 
  68:Core/Src/main.c **** /* USER CODE BEGIN PV */
  69:Core/Src/main.c **** 
  70:Core/Src/main.c **** /* USER CODE END PV */
  71:Core/Src/main.c **** 
  72:Core/Src/main.c **** /* Private function prototypes -----------------------------------------------*/
  73:Core/Src/main.c **** void SystemClock_Config(void);
  74:Core/Src/main.c **** /* USER CODE BEGIN PFP */
  75:Core/Src/main.c **** 
  76:Core/Src/main.c **** /* USER CODE END PFP */
  77:Core/Src/main.c **** 
  78:Core/Src/main.c **** /* Private user code ---------------------------------------------------------*/
  79:Core/Src/main.c **** /* USER CODE BEGIN 0 */
  80:Core/Src/main.c **** 
  81:Core/Src/main.c **** 
  82:Core/Src/main.c **** void UserPixelSetFunction(UG_S16 x, UG_S16 y, UG_COLOR c)
  83:Core/Src/main.c **** {
  30              		.loc 1 83 1 view -0
  31              		.cfi_startproc
  32              		@ args = 0, pretend = 0, frame = 8
ARM GAS  /tmp/ccPctUpA.s 			page 3


  33              		@ frame_needed = 0, uses_anonymous_args = 0
  34              		.loc 1 83 1 is_stmt 0 view .LVU1
  35 0000 00B5     		push	{lr}
  36              	.LCFI0:
  37              		.cfi_def_cfa_offset 4
  38              		.cfi_offset 14, -4
  39 0002 83B0     		sub	sp, sp, #12
  40              	.LCFI1:
  41              		.cfi_def_cfa_offset 16
  42 0004 0192     		str	r2, [sp, #4]
  84:Core/Src/main.c **** 	ILI9341_SetDisplayWindow(x, y, 1, 1);
  43              		.loc 1 84 2 is_stmt 1 view .LVU2
  44 0006 0123     		movs	r3, #1
  45 0008 1A46     		mov	r2, r3
  46              	.LVL1:
  47              		.loc 1 84 2 is_stmt 0 view .LVU3
  48 000a FFF7FEFF 		bl	ILI9341_SetDisplayWindow
  49              	.LVL2:
  85:Core/Src/main.c **** 	ILI9341_SendData((LCD_IO_Data_t *)&c, 1);
  50              		.loc 1 85 2 is_stmt 1 view .LVU4
  51 000e 0121     		movs	r1, #1
  52 0010 01A8     		add	r0, sp, #4
  53 0012 FFF7FEFF 		bl	ILI9341_SendData
  54              	.LVL3:
  86:Core/Src/main.c **** }
  55              		.loc 1 86 1 is_stmt 0 view .LVU5
  56 0016 03B0     		add	sp, sp, #12
  57              	.LCFI2:
  58              		.cfi_def_cfa_offset 4
  59              		@ sp needed
  60 0018 5DF804FB 		ldr	pc, [sp], #4
  61              		.cfi_endproc
  62              	.LFE1442:
  64              		.section	.text._HW_FillFrame_,"ax",%progbits
  65              		.align	1
  66              		.global	_HW_FillFrame_
  67              		.syntax unified
  68              		.thumb
  69              		.thumb_func
  71              	_HW_FillFrame_:
  72              	.LVL4:
  73              	.LFB1443:
  87:Core/Src/main.c **** 
  88:Core/Src/main.c **** UG_RESULT _HW_FillFrame_(UG_S16 x, UG_S16 y, UG_S16 w, UG_S16 h, UG_COLOR c)
  89:Core/Src/main.c **** {
  74              		.loc 1 89 1 is_stmt 1 view -0
  75              		.cfi_startproc
  76              		@ args = 4, pretend = 0, frame = 0
  77              		@ frame_needed = 0, uses_anonymous_args = 0
  78              		.loc 1 89 1 is_stmt 0 view .LVU7
  79 0000 10B5     		push	{r4, lr}
  80              	.LCFI3:
  81              		.cfi_def_cfa_offset 8
  82              		.cfi_offset 4, -8
  83              		.cfi_offset 14, -4
  84 0002 82B0     		sub	sp, sp, #8
  85              	.LCFI4:
ARM GAS  /tmp/ccPctUpA.s 			page 4


  86              		.cfi_def_cfa_offset 16
  90:Core/Src/main.c **** 	LCD_FillRect(x, y, w, h, c);
  87              		.loc 1 90 2 is_stmt 1 view .LVU8
  88 0004 BDF81040 		ldrh	r4, [sp, #16]
  89 0008 0094     		str	r4, [sp]
  90 000a FFF7FEFF 		bl	LCD_FillRect
  91              	.LVL5:
  91:Core/Src/main.c **** 
  92:Core/Src/main.c **** 	return UG_RESULT_OK;
  92              		.loc 1 92 2 view .LVU9
  93:Core/Src/main.c **** }
  93              		.loc 1 93 1 is_stmt 0 view .LVU10
  94 000e 0020     		movs	r0, #0
  95 0010 02B0     		add	sp, sp, #8
  96              	.LCFI5:
  97              		.cfi_def_cfa_offset 8
  98              		@ sp needed
  99 0012 10BD     		pop	{r4, pc}
 100              		.loc 1 93 1 view .LVU11
 101              		.cfi_endproc
 102              	.LFE1443:
 104              		.section	.text.initFA,"ax",%progbits
 105              		.align	1
 106              		.global	initFA
 107              		.syntax unified
 108              		.thumb
 109              		.thumb_func
 111              	initFA:
 112              	.LFB1444:
  94:Core/Src/main.c **** 
  95:Core/Src/main.c **** 
  96:Core/Src/main.c **** 
  97:Core/Src/main.c **** // global variables & structs
  98:Core/Src/main.c **** UG_GUI gui;
  99:Core/Src/main.c **** 
 100:Core/Src/main.c **** uint16_t p_y = 240/2 - 100;
 101:Core/Src/main.c **** uint16_t p_x = 320/2 - 100;
 102:Core/Src/main.c **** 
 103:Core/Src/main.c **** int score = 0;
 104:Core/Src/main.c **** int rotations;
 105:Core/Src/main.c **** int fullRow[24] = {0};
 106:Core/Src/main.c **** int seed = 12345;
 107:Core/Src/main.c **** uint16_t fieldArray[34*25]={0};
 108:Core/Src/main.c **** coord_t joystick_raw, joystick_out;
 109:Core/Src/main.c **** joystick_t joystick;
 110:Core/Src/main.c **** 
 111:Core/Src/main.c **** typedef struct {
 112:Core/Src/main.c **** 	buttons_enum_t name;
 113:Core/Src/main.c ****     int previousState;
 114:Core/Src/main.c ****     uint32_t lastPressTime;
 115:Core/Src/main.c **** } ButtonState;
 116:Core/Src/main.c **** 
 117:Core/Src/main.c **** ButtonState up = {BTN_UP, 0, 0};
 118:Core/Src/main.c **** ButtonState right = {BTN_RIGHT, 0, 0};
 119:Core/Src/main.c **** ButtonState down = {BTN_DOWN, 0, 0};
 120:Core/Src/main.c **** ButtonState left = {BTN_LEFT, 0, 0};
 121:Core/Src/main.c **** ButtonState ok = {BTN_OK, 0, 0};
ARM GAS  /tmp/ccPctUpA.s 			page 5


 122:Core/Src/main.c **** ButtonState esc = {BTN_ESC, 0, 0};
 123:Core/Src/main.c **** 
 124:Core/Src/main.c **** typedef enum {
 125:Core/Src/main.c ****     JOY_LEFT,
 126:Core/Src/main.c **** 	JOY_RIGHT
 127:Core/Src/main.c **** } direction;
 128:Core/Src/main.c **** 
 129:Core/Src/main.c **** typedef struct {
 130:Core/Src/main.c **** 	direction dir;
 131:Core/Src/main.c ****     int previousState;
 132:Core/Src/main.c ****     uint32_t lastPressTime;
 133:Core/Src/main.c **** } joystickState;
 134:Core/Src/main.c **** 
 135:Core/Src/main.c **** typedef enum {
 136:Core/Src/main.c ****     START_SCREEN,
 137:Core/Src/main.c ****     GAMING_SCREEN,
 138:Core/Src/main.c ****     GAME_OVER_SCREEN
 139:Core/Src/main.c **** } GameState;
 140:Core/Src/main.c **** 
 141:Core/Src/main.c **** // field array has a wall of 1 cells around
 142:Core/Src/main.c **** void initFA() {
 113              		.loc 1 142 15 is_stmt 1 view -0
 114              		.cfi_startproc
 115              		@ args = 0, pretend = 0, frame = 0
 116              		@ frame_needed = 0, uses_anonymous_args = 0
 117              		@ link register save eliminated.
 143:Core/Src/main.c **** 	for (int y = 0; y < 25; y++) {
 118              		.loc 1 143 2 view .LVU13
 119              	.LBB4:
 120              		.loc 1 143 7 view .LVU14
 121              	.LVL6:
 122              		.loc 1 143 11 is_stmt 0 view .LVU15
 123 0000 0021     		movs	r1, #0
 124              		.loc 1 143 2 view .LVU16
 125 0002 1CE0     		b	.L6
 126              	.LVL7:
 127              	.L7:
 128              	.LBB5:
 144:Core/Src/main.c **** 		for (int x = 0; x < 34; x++) {
 145:Core/Src/main.c **** 			if (x==0 || x==33 || y==24) {
 146:Core/Src/main.c **** 				fieldArray[y*34+x] = 1;
 129              		.loc 1 146 5 is_stmt 1 view .LVU17
 130              		.loc 1 146 17 is_stmt 0 view .LVU18
 131 0004 01EB0110 		add	r0, r1, r1, lsl #4
 132 0008 4200     		lsls	r2, r0, #1
 133              		.loc 1 146 20 view .LVU19
 134 000a 1A44     		add	r2, r2, r3
 135              		.loc 1 146 24 view .LVU20
 136 000c 0E48     		ldr	r0, .L15
 137 000e 4FF0010C 		mov	ip, #1
 138 0012 20F812C0 		strh	ip, [r0, r2, lsl #1]	@ movhi
 139              	.L9:
 144:Core/Src/main.c **** 		for (int x = 0; x < 34; x++) {
 140              		.loc 1 144 27 is_stmt 1 discriminator 2 view .LVU21
 144:Core/Src/main.c **** 		for (int x = 0; x < 34; x++) {
 141              		.loc 1 144 28 is_stmt 0 discriminator 2 view .LVU22
 142 0016 0133     		adds	r3, r3, #1
ARM GAS  /tmp/ccPctUpA.s 			page 6


 143              	.LVL8:
 144              	.L11:
 144:Core/Src/main.c **** 		for (int x = 0; x < 34; x++) {
 145              		.loc 1 144 19 is_stmt 1 discriminator 1 view .LVU23
 144:Core/Src/main.c **** 		for (int x = 0; x < 34; x++) {
 146              		.loc 1 144 3 is_stmt 0 discriminator 1 view .LVU24
 147 0018 212B     		cmp	r3, #33
 148 001a 0FDC     		bgt	.L13
 145:Core/Src/main.c **** 				fieldArray[y*34+x] = 1;
 149              		.loc 1 145 4 is_stmt 1 view .LVU25
 145:Core/Src/main.c **** 				fieldArray[y*34+x] = 1;
 150              		.loc 1 145 7 is_stmt 0 view .LVU26
 151 001c 002B     		cmp	r3, #0
 152 001e F1D0     		beq	.L7
 145:Core/Src/main.c **** 				fieldArray[y*34+x] = 1;
 153              		.loc 1 145 13 discriminator 1 view .LVU27
 154 0020 212B     		cmp	r3, #33
 155 0022 EFD0     		beq	.L7
 145:Core/Src/main.c **** 				fieldArray[y*34+x] = 1;
 156              		.loc 1 145 22 discriminator 2 view .LVU28
 157 0024 1829     		cmp	r1, #24
 158 0026 EDD0     		beq	.L7
 147:Core/Src/main.c **** 			}
 148:Core/Src/main.c **** 			else fieldArray[y*34+x] = 0;
 159              		.loc 1 148 9 is_stmt 1 view .LVU29
 160              		.loc 1 148 21 is_stmt 0 view .LVU30
 161 0028 01EB0110 		add	r0, r1, r1, lsl #4
 162 002c 4200     		lsls	r2, r0, #1
 163              		.loc 1 148 24 view .LVU31
 164 002e 1A44     		add	r2, r2, r3
 165              		.loc 1 148 28 view .LVU32
 166 0030 0548     		ldr	r0, .L15
 167 0032 4FF0000C 		mov	ip, #0
 168 0036 20F812C0 		strh	ip, [r0, r2, lsl #1]	@ movhi
 169 003a ECE7     		b	.L9
 170              	.L13:
 171              		.loc 1 148 28 view .LVU33
 172              	.LBE5:
 143:Core/Src/main.c **** 		for (int x = 0; x < 34; x++) {
 173              		.loc 1 143 26 is_stmt 1 discriminator 2 view .LVU34
 143:Core/Src/main.c **** 		for (int x = 0; x < 34; x++) {
 174              		.loc 1 143 27 is_stmt 0 discriminator 2 view .LVU35
 175 003c 0131     		adds	r1, r1, #1
 176              	.LVL9:
 177              	.L6:
 143:Core/Src/main.c **** 		for (int x = 0; x < 34; x++) {
 178              		.loc 1 143 18 is_stmt 1 discriminator 1 view .LVU36
 143:Core/Src/main.c **** 		for (int x = 0; x < 34; x++) {
 179              		.loc 1 143 2 is_stmt 0 discriminator 1 view .LVU37
 180 003e 1829     		cmp	r1, #24
 181 0040 01DC     		bgt	.L14
 182              	.LBB6:
 144:Core/Src/main.c **** 			if (x==0 || x==33 || y==24) {
 183              		.loc 1 144 12 view .LVU38
 184 0042 0023     		movs	r3, #0
 185 0044 E8E7     		b	.L11
 186              	.L14:
ARM GAS  /tmp/ccPctUpA.s 			page 7


 187              	.LBE6:
 188              	.LBE4:
 149:Core/Src/main.c **** 		}
 150:Core/Src/main.c **** 	}
 151:Core/Src/main.c **** }
 189              		.loc 1 151 1 view .LVU39
 190 0046 7047     		bx	lr
 191              	.L16:
 192              		.align	2
 193              	.L15:
 194 0048 00000000 		.word	.LANCHOR0
 195              		.cfi_endproc
 196              	.LFE1444:
 198              		.section	.text.initFR,"ax",%progbits
 199              		.align	1
 200              		.global	initFR
 201              		.syntax unified
 202              		.thumb
 203              		.thumb_func
 205              	initFR:
 206              	.LFB1445:
 152:Core/Src/main.c **** 
 153:Core/Src/main.c **** void initFR() {
 207              		.loc 1 153 15 is_stmt 1 view -0
 208              		.cfi_startproc
 209              		@ args = 0, pretend = 0, frame = 0
 210              		@ frame_needed = 0, uses_anonymous_args = 0
 211              		@ link register save eliminated.
 154:Core/Src/main.c **** 	for (int i = 0; i < 24; i++) {
 212              		.loc 1 154 2 view .LVU41
 213              	.LBB7:
 214              		.loc 1 154 7 view .LVU42
 215              	.LVL10:
 216              		.loc 1 154 11 is_stmt 0 view .LVU43
 217 0000 0023     		movs	r3, #0
 218              		.loc 1 154 2 view .LVU44
 219 0002 04E0     		b	.L18
 220              	.LVL11:
 221              	.L19:
 155:Core/Src/main.c **** 		fullRow[i] = 0;
 222              		.loc 1 155 3 is_stmt 1 discriminator 3 view .LVU45
 223              		.loc 1 155 14 is_stmt 0 discriminator 3 view .LVU46
 224 0004 034A     		ldr	r2, .L20
 225 0006 0021     		movs	r1, #0
 226 0008 42F82310 		str	r1, [r2, r3, lsl #2]
 154:Core/Src/main.c **** 	for (int i = 0; i < 24; i++) {
 227              		.loc 1 154 26 is_stmt 1 discriminator 3 view .LVU47
 154:Core/Src/main.c **** 	for (int i = 0; i < 24; i++) {
 228              		.loc 1 154 27 is_stmt 0 discriminator 3 view .LVU48
 229 000c 0133     		adds	r3, r3, #1
 230              	.LVL12:
 231              	.L18:
 154:Core/Src/main.c **** 	for (int i = 0; i < 24; i++) {
 232              		.loc 1 154 18 is_stmt 1 discriminator 1 view .LVU49
 154:Core/Src/main.c **** 	for (int i = 0; i < 24; i++) {
 233              		.loc 1 154 2 is_stmt 0 discriminator 1 view .LVU50
 234 000e 172B     		cmp	r3, #23
ARM GAS  /tmp/ccPctUpA.s 			page 8


 235 0010 F8DD     		ble	.L19
 236              	.LBE7:
 156:Core/Src/main.c **** 	}
 157:Core/Src/main.c **** }
 237              		.loc 1 157 1 view .LVU51
 238 0012 7047     		bx	lr
 239              	.L21:
 240              		.align	2
 241              	.L20:
 242 0014 00000000 		.word	.LANCHOR1
 243              		.cfi_endproc
 244              	.LFE1445:
 246              		.section	.text.writeToFA,"ax",%progbits
 247              		.align	1
 248              		.global	writeToFA
 249              		.syntax unified
 250              		.thumb
 251              		.thumb_func
 253              	writeToFA:
 254              	.LFB1446:
 158:Core/Src/main.c **** 
 159:Core/Src/main.c **** 
 160:Core/Src/main.c **** void writeToFA(Tetromino t) {
 255              		.loc 1 160 29 is_stmt 1 view -0
 256              		.cfi_startproc
 257              		@ args = 48, pretend = 16, frame = 0
 258              		@ frame_needed = 0, uses_anonymous_args = 0
 259 0000 84B0     		sub	sp, sp, #16
 260              	.LCFI6:
 261              		.cfi_def_cfa_offset 16
 262 0002 F8B5     		push	{r3, r4, r5, r6, r7, lr}
 263              	.LCFI7:
 264              		.cfi_def_cfa_offset 40
 265              		.cfi_offset 3, -40
 266              		.cfi_offset 4, -36
 267              		.cfi_offset 5, -32
 268              		.cfi_offset 6, -28
 269              		.cfi_offset 7, -24
 270              		.cfi_offset 14, -20
 271 0004 06AC     		add	r4, sp, #24
 272 0006 84E80F00 		stm	r4, {r0, r1, r2, r3}
 161:Core/Src/main.c ****     for (int y = 0; y < 4; y++) {
 273              		.loc 1 161 5 view .LVU53
 274              	.LBB8:
 275              		.loc 1 161 10 view .LVU54
 276              	.LVL13:
 277              		.loc 1 161 14 is_stmt 0 view .LVU55
 278 000a 0027     		movs	r7, #0
 279              		.loc 1 161 5 view .LVU56
 280 000c 26E0     		b	.L23
 281              	.LVL14:
 282              	.L24:
 283              	.LBB9:
 162:Core/Src/main.c ****         for (int x = 0; x < 4; x++) {
 284              		.loc 1 162 32 is_stmt 1 discriminator 2 view .LVU57
 285              		.loc 1 162 33 is_stmt 0 discriminator 2 view .LVU58
 286 000e 0135     		adds	r5, r5, #1
ARM GAS  /tmp/ccPctUpA.s 			page 9


 287              	.LVL15:
 288              	.L26:
 289              		.loc 1 162 25 is_stmt 1 discriminator 1 view .LVU59
 290              		.loc 1 162 9 is_stmt 0 discriminator 1 view .LVU60
 291 0010 032D     		cmp	r5, #3
 292 0012 22DC     		bgt	.L29
 293              	.LBB10:
 163:Core/Src/main.c ****             int i = (t.y+y) * 34 + t.x+x;
 294              		.loc 1 163 13 is_stmt 1 view .LVU61
 295              		.loc 1 163 23 is_stmt 0 view .LVU62
 296 0014 119C     		ldr	r4, [sp, #68]
 297              		.loc 1 163 25 view .LVU63
 298 0016 3C44     		add	r4, r4, r7
 299              		.loc 1 163 29 view .LVU64
 300 0018 04EB0412 		add	r2, r4, r4, lsl #4
 301              		.loc 1 163 37 view .LVU65
 302 001c 109B     		ldr	r3, [sp, #64]
 303              		.loc 1 163 34 view .LVU66
 304 001e 03EB4203 		add	r3, r3, r2, lsl #1
 305              		.loc 1 163 17 view .LVU67
 306 0022 5E19     		adds	r6, r3, r5
 307              	.LVL16:
 164:Core/Src/main.c ****             uint16_t tetrominoValue = t.grid[rotateTetromino(x, y, t.rotation)];
 308              		.loc 1 164 13 is_stmt 1 view .LVU68
 309              		.loc 1 164 46 is_stmt 0 view .LVU69
 310 0024 069A     		ldr	r2, [sp, #24]
 311 0026 3946     		mov	r1, r7
 312 0028 2846     		mov	r0, r5
 313 002a FFF7FEFF 		bl	rotateTetromino
 314              	.LVL17:
 315              		.loc 1 164 22 view .LVU70
 316 002e 06AB     		add	r3, sp, #24
 317 0030 03EB4000 		add	r0, r3, r0, lsl #1
 318 0034 C388     		ldrh	r3, [r0, #6]
 319              	.LVL18:
 165:Core/Src/main.c ****             if (tetrominoValue != 0) {
 320              		.loc 1 165 13 is_stmt 1 view .LVU71
 321              		.loc 1 165 16 is_stmt 0 view .LVU72
 322 0036 002B     		cmp	r3, #0
 323 0038 E9D0     		beq	.L24
 166:Core/Src/main.c ****             	fieldArray[i] = tetrominoValue;
 324              		.loc 1 166 14 is_stmt 1 view .LVU73
 325              		.loc 1 166 28 is_stmt 0 view .LVU74
 326 003a 0C4A     		ldr	r2, .L31
 327 003c 22F81630 		strh	r3, [r2, r6, lsl #1]	@ movhi
 167:Core/Src/main.c ****             	fullRow[t.y+y] += 1;
 328              		.loc 1 167 14 is_stmt 1 view .LVU75
 329              		.loc 1 167 29 is_stmt 0 view .LVU76
 330 0040 0B4A     		ldr	r2, .L31+4
 331 0042 52F82430 		ldr	r3, [r2, r4, lsl #2]
 332              	.LVL19:
 333              		.loc 1 167 29 view .LVU77
 334 0046 0133     		adds	r3, r3, #1
 335 0048 42F82430 		str	r3, [r2, r4, lsl #2]
 168:Core/Src/main.c ****             	if (fullRow[t.y+y] == 32) score++;
 336              		.loc 1 168 14 is_stmt 1 view .LVU78
 337              		.loc 1 168 17 is_stmt 0 view .LVU79
ARM GAS  /tmp/ccPctUpA.s 			page 10


 338 004c 202B     		cmp	r3, #32
 339 004e DED1     		bne	.L24
 340              		.loc 1 168 40 is_stmt 1 discriminator 1 view .LVU80
 341              		.loc 1 168 45 is_stmt 0 discriminator 1 view .LVU81
 342 0050 084A     		ldr	r2, .L31+8
 343 0052 1368     		ldr	r3, [r2]
 344 0054 0133     		adds	r3, r3, #1
 345 0056 1360     		str	r3, [r2]
 346 0058 D9E7     		b	.L24
 347              	.LVL20:
 348              	.L29:
 349              		.loc 1 168 45 discriminator 1 view .LVU82
 350              	.LBE10:
 351              	.LBE9:
 161:Core/Src/main.c ****         for (int x = 0; x < 4; x++) {
 352              		.loc 1 161 28 is_stmt 1 discriminator 2 view .LVU83
 161:Core/Src/main.c ****         for (int x = 0; x < 4; x++) {
 353              		.loc 1 161 29 is_stmt 0 discriminator 2 view .LVU84
 354 005a 0137     		adds	r7, r7, #1
 355              	.LVL21:
 356              	.L23:
 161:Core/Src/main.c ****         for (int x = 0; x < 4; x++) {
 357              		.loc 1 161 21 is_stmt 1 discriminator 1 view .LVU85
 161:Core/Src/main.c ****         for (int x = 0; x < 4; x++) {
 358              		.loc 1 161 5 is_stmt 0 discriminator 1 view .LVU86
 359 005c 032F     		cmp	r7, #3
 360 005e 01DC     		bgt	.L30
 361              	.LBB11:
 162:Core/Src/main.c ****             int i = (t.y+y) * 34 + t.x+x;
 362              		.loc 1 162 18 view .LVU87
 363 0060 0025     		movs	r5, #0
 364 0062 D5E7     		b	.L26
 365              	.L30:
 366              	.LBE11:
 367              	.LBE8:
 169:Core/Src/main.c ****             }
 170:Core/Src/main.c ****         }
 171:Core/Src/main.c ****     }
 172:Core/Src/main.c **** }
 368              		.loc 1 172 1 view .LVU88
 369 0064 BDE8F840 		pop	{r3, r4, r5, r6, r7, lr}
 370              	.LCFI8:
 371              		.cfi_restore 14
 372              		.cfi_restore 7
 373              		.cfi_restore 6
 374              		.cfi_restore 5
 375              		.cfi_restore 4
 376              		.cfi_restore 3
 377              		.cfi_def_cfa_offset 16
 378              	.LVL22:
 379              		.loc 1 172 1 view .LVU89
 380 0068 04B0     		add	sp, sp, #16
 381              	.LCFI9:
 382              		.cfi_def_cfa_offset 0
 383 006a 7047     		bx	lr
 384              	.L32:
 385              		.align	2
ARM GAS  /tmp/ccPctUpA.s 			page 11


 386              	.L31:
 387 006c 00000000 		.word	.LANCHOR0
 388 0070 00000000 		.word	.LANCHOR1
 389 0074 00000000 		.word	.LANCHOR2
 390              		.cfi_endproc
 391              	.LFE1446:
 393              		.section	.text.collisions,"ax",%progbits
 394              		.align	1
 395              		.global	collisions
 396              		.syntax unified
 397              		.thumb
 398              		.thumb_func
 400              	collisions:
 401              	.LVL23:
 402              	.LFB1447:
 173:Core/Src/main.c **** 
 174:Core/Src/main.c **** 
 175:Core/Src/main.c **** int collisions(Tetromino t, int tx, int ty, int rotation) {
 403              		.loc 1 175 59 is_stmt 1 view -0
 404              		.cfi_startproc
 405              		@ args = 60, pretend = 16, frame = 0
 406              		@ frame_needed = 0, uses_anonymous_args = 0
 407              		.loc 1 175 59 is_stmt 0 view .LVU91
 408 0000 84B0     		sub	sp, sp, #16
 409              	.LCFI10:
 410              		.cfi_def_cfa_offset 16
 411 0002 2DE9F041 		push	{r4, r5, r6, r7, r8, lr}
 412              	.LCFI11:
 413              		.cfi_def_cfa_offset 40
 414              		.cfi_offset 4, -40
 415              		.cfi_offset 5, -36
 416              		.cfi_offset 6, -32
 417              		.cfi_offset 7, -28
 418              		.cfi_offset 8, -24
 419              		.cfi_offset 14, -20
 420 0006 06AC     		add	r4, sp, #24
 421 0008 84E80F00 		stm	r4, {r0, r1, r2, r3}
 422 000c DDF84880 		ldr	r8, [sp, #72]
 423 0010 139F     		ldr	r7, [sp, #76]
 424 0012 149E     		ldr	r6, [sp, #80]
 176:Core/Src/main.c **** 	for (int y = 0; y < 4; y++) {
 425              		.loc 1 176 2 is_stmt 1 view .LVU92
 426              	.LBB12:
 427              		.loc 1 176 7 view .LVU93
 428              	.LVL24:
 429              		.loc 1 176 11 is_stmt 0 view .LVU94
 430 0014 0025     		movs	r5, #0
 431              		.loc 1 176 2 view .LVU95
 432 0016 20E0     		b	.L34
 433              	.LVL25:
 434              	.L35:
 435              	.LBB13:
 177:Core/Src/main.c **** 		for (int x = 0; x < 4; x++) {
 436              		.loc 1 177 26 is_stmt 1 discriminator 2 view .LVU96
 437              		.loc 1 177 27 is_stmt 0 discriminator 2 view .LVU97
 438 0018 0134     		adds	r4, r4, #1
 439              	.LVL26:
ARM GAS  /tmp/ccPctUpA.s 			page 12


 440              	.L38:
 441              		.loc 1 177 19 is_stmt 1 discriminator 1 view .LVU98
 442              		.loc 1 177 3 is_stmt 0 discriminator 1 view .LVU99
 443 001a 032C     		cmp	r4, #3
 444 001c 1CDC     		bgt	.L42
 445              	.LBB14:
 178:Core/Src/main.c **** 
 179:Core/Src/main.c **** 			uint16_t tValue = t.grid[rotateTetromino(x, y, rotation)];
 446              		.loc 1 179 4 is_stmt 1 view .LVU100
 447              		.loc 1 179 29 is_stmt 0 view .LVU101
 448 001e 3246     		mov	r2, r6
 449 0020 2946     		mov	r1, r5
 450 0022 2046     		mov	r0, r4
 451 0024 FFF7FEFF 		bl	rotateTetromino
 452              	.LVL27:
 453              		.loc 1 179 13 view .LVU102
 454 0028 06AB     		add	r3, sp, #24
 455 002a 03EB4000 		add	r0, r3, r0, lsl #1
 456 002e C088     		ldrh	r0, [r0, #6]
 457              	.LVL28:
 180:Core/Src/main.c **** 			int fieldIndex = (ty + y) * 34 + (tx + x);
 458              		.loc 1 180 4 is_stmt 1 view .LVU103
 459              		.loc 1 180 25 is_stmt 0 view .LVU104
 460 0030 EB19     		adds	r3, r5, r7
 461              		.loc 1 180 30 view .LVU105
 462 0032 03EB0312 		add	r2, r3, r3, lsl #4
 463              		.loc 1 180 41 view .LVU106
 464 0036 04EB0801 		add	r1, r4, r8
 465              		.loc 1 180 8 view .LVU107
 466 003a 01EB4202 		add	r2, r1, r2, lsl #1
 467              	.LVL29:
 181:Core/Src/main.c **** 
 182:Core/Src/main.c **** 			if (tx+x >= 0 && tx+x < 34) {
 468              		.loc 1 182 4 is_stmt 1 view .LVU108
 469              		.loc 1 182 7 is_stmt 0 view .LVU109
 470 003e 2129     		cmp	r1, #33
 471 0040 EAD8     		bhi	.L35
 183:Core/Src/main.c **** 				if (ty + y >= 0 && ty + y < 25) {
 472              		.loc 1 183 5 is_stmt 1 view .LVU110
 473              		.loc 1 183 8 is_stmt 0 view .LVU111
 474 0042 182B     		cmp	r3, #24
 475 0044 E8D8     		bhi	.L35
 184:Core/Src/main.c **** 
 185:Core/Src/main.c **** 					if (tValue != 0 && fieldArray[fieldIndex] != 0) {
 476              		.loc 1 185 6 is_stmt 1 view .LVU112
 477              		.loc 1 185 9 is_stmt 0 view .LVU113
 478 0046 0028     		cmp	r0, #0
 479 0048 E6D0     		beq	.L35
 480              		.loc 1 185 35 discriminator 1 view .LVU114
 481 004a 084B     		ldr	r3, .L44
 482 004c 33F81230 		ldrh	r3, [r3, r2, lsl #1]
 483              		.loc 1 185 22 discriminator 1 view .LVU115
 484 0050 002B     		cmp	r3, #0
 485 0052 E1D0     		beq	.L35
 186:Core/Src/main.c **** 					// we get collision
 187:Core/Src/main.c **** 						return 1;
 486              		.loc 1 187 14 view .LVU116
ARM GAS  /tmp/ccPctUpA.s 			page 13


 487 0054 0120     		movs	r0, #1
 488              	.LVL30:
 489              		.loc 1 187 14 view .LVU117
 490 0056 05E0     		b	.L33
 491              	.LVL31:
 492              	.L42:
 493              		.loc 1 187 14 view .LVU118
 494              	.LBE14:
 495              	.LBE13:
 176:Core/Src/main.c **** 		for (int x = 0; x < 4; x++) {
 496              		.loc 1 176 25 is_stmt 1 discriminator 2 view .LVU119
 176:Core/Src/main.c **** 		for (int x = 0; x < 4; x++) {
 497              		.loc 1 176 26 is_stmt 0 discriminator 2 view .LVU120
 498 0058 0135     		adds	r5, r5, #1
 499              	.LVL32:
 500              	.L34:
 176:Core/Src/main.c **** 		for (int x = 0; x < 4; x++) {
 501              		.loc 1 176 18 is_stmt 1 discriminator 1 view .LVU121
 176:Core/Src/main.c **** 		for (int x = 0; x < 4; x++) {
 502              		.loc 1 176 2 is_stmt 0 discriminator 1 view .LVU122
 503 005a 032D     		cmp	r5, #3
 504 005c 01DC     		bgt	.L43
 505              	.LBB15:
 177:Core/Src/main.c **** 
 506              		.loc 1 177 12 view .LVU123
 507 005e 0024     		movs	r4, #0
 508 0060 DBE7     		b	.L38
 509              	.L43:
 510              	.LBE15:
 511              	.LBE12:
 188:Core/Src/main.c **** 					}
 189:Core/Src/main.c **** 
 190:Core/Src/main.c **** 				}
 191:Core/Src/main.c **** 			}
 192:Core/Src/main.c **** 		}
 193:Core/Src/main.c **** 	}
 194:Core/Src/main.c **** 	return 0;
 512              		.loc 1 194 9 view .LVU124
 513 0062 0020     		movs	r0, #0
 514              	.L33:
 195:Core/Src/main.c **** }
 515              		.loc 1 195 1 view .LVU125
 516 0064 BDE8F041 		pop	{r4, r5, r6, r7, r8, lr}
 517              	.LCFI12:
 518              		.cfi_restore 14
 519              		.cfi_restore 8
 520              		.cfi_restore 7
 521              		.cfi_restore 6
 522              		.cfi_restore 5
 523              		.cfi_restore 4
 524              		.cfi_def_cfa_offset 16
 525              	.LVL33:
 526              		.loc 1 195 1 view .LVU126
 527 0068 04B0     		add	sp, sp, #16
 528              	.LCFI13:
 529              		.cfi_def_cfa_offset 0
 530 006a 7047     		bx	lr
ARM GAS  /tmp/ccPctUpA.s 			page 14


 531              	.L45:
 532              		.align	2
 533              	.L44:
 534 006c 00000000 		.word	.LANCHOR0
 535              		.cfi_endproc
 536              	.LFE1447:
 538              		.section	.text.pseudoRandom,"ax",%progbits
 539              		.align	1
 540              		.global	pseudoRandom
 541              		.syntax unified
 542              		.thumb
 543              		.thumb_func
 545              	pseudoRandom:
 546              	.LVL34:
 547              	.LFB1448:
 196:Core/Src/main.c **** 
 197:Core/Src/main.c **** 
 198:Core/Src/main.c **** int pseudoRandom(int diviser) {
 548              		.loc 1 198 31 is_stmt 1 view -0
 549              		.cfi_startproc
 550              		@ args = 0, pretend = 0, frame = 0
 551              		@ frame_needed = 0, uses_anonymous_args = 0
 552              		@ link register save eliminated.
 553              		.loc 1 198 31 is_stmt 0 view .LVU128
 554 0000 10B4     		push	{r4}
 555              	.LCFI14:
 556              		.cfi_def_cfa_offset 4
 557              		.cfi_offset 4, -4
 199:Core/Src/main.c ****     // Constants for a commonly-used LCG from Numerical Recipes
 200:Core/Src/main.c ****     const unsigned int m = 0x7fffffff;  // 2^31-1
 558              		.loc 1 200 5 is_stmt 1 view .LVU129
 559              	.LVL35:
 201:Core/Src/main.c ****     const unsigned int a = 1664525;
 560              		.loc 1 201 5 view .LVU130
 202:Core/Src/main.c ****     const unsigned int c = 1013904223;
 561              		.loc 1 202 5 view .LVU131
 203:Core/Src/main.c **** 
 204:Core/Src/main.c ****     seed = (a * seed + c) % m;
 562              		.loc 1 204 5 view .LVU132
 563              		.loc 1 204 15 is_stmt 0 view .LVU133
 564 0002 0C49     		ldr	r1, .L48
 565 0004 0B68     		ldr	r3, [r1]
 566              		.loc 1 204 22 view .LVU134
 567 0006 0C4C     		ldr	r4, .L48+4
 568 0008 0C4A     		ldr	r2, .L48+8
 569 000a 04FB0322 		mla	r2, r4, r3, r2
 570              		.loc 1 204 27 view .LVU135
 571 000e 0323     		movs	r3, #3
 572 0010 A3FB0243 		umull	r4, r3, r3, r2
 573 0014 A2EB030C 		sub	ip, r2, r3
 574 0018 03EB5C03 		add	r3, r3, ip, lsr #1
 575 001c 9B0F     		lsrs	r3, r3, #30
 576 001e C3EBC373 		rsb	r3, r3, r3, lsl #31
 577 0022 D31A     		subs	r3, r2, r3
 578              		.loc 1 204 10 view .LVU136
 579 0024 0B60     		str	r3, [r1]
 205:Core/Src/main.c **** 
ARM GAS  /tmp/ccPctUpA.s 			page 15


 206:Core/Src/main.c ****     return seed % diviser;
 580              		.loc 1 206 5 is_stmt 1 view .LVU137
 581              		.loc 1 206 17 is_stmt 0 view .LVU138
 582 0026 93FBF0F2 		sdiv	r2, r3, r0
 207:Core/Src/main.c **** }
 583              		.loc 1 207 1 view .LVU139
 584 002a 00FB1230 		mls	r0, r0, r2, r3
 585              	.LVL36:
 586              		.loc 1 207 1 view .LVU140
 587 002e 5DF8044B 		ldr	r4, [sp], #4
 588              	.LCFI15:
 589              		.cfi_restore 4
 590              		.cfi_def_cfa_offset 0
 591 0032 7047     		bx	lr
 592              	.L49:
 593              		.align	2
 594              	.L48:
 595 0034 00000000 		.word	.LANCHOR3
 596 0038 0D661900 		.word	1664525
 597 003c 5FF36E3C 		.word	1013904223
 598              		.cfi_endproc
 599              	.LFE1448:
 601              		.section	.text.isButtonPressed,"ax",%progbits
 602              		.align	1
 603              		.global	isButtonPressed
 604              		.syntax unified
 605              		.thumb
 606              		.thumb_func
 608              	isButtonPressed:
 609              	.LVL37:
 610              	.LFB1449:
 208:Core/Src/main.c **** 
 209:Core/Src/main.c **** 
 210:Core/Src/main.c **** 
 211:Core/Src/main.c **** 
 212:Core/Src/main.c **** int isButtonPressed(ButtonState* button) {
 611              		.loc 1 212 42 is_stmt 1 view -0
 612              		.cfi_startproc
 613              		@ args = 0, pretend = 0, frame = 0
 614              		@ frame_needed = 0, uses_anonymous_args = 0
 615              		.loc 1 212 42 is_stmt 0 view .LVU142
 616 0000 70B5     		push	{r4, r5, r6, lr}
 617              	.LCFI16:
 618              		.cfi_def_cfa_offset 16
 619              		.cfi_offset 4, -16
 620              		.cfi_offset 5, -12
 621              		.cfi_offset 6, -8
 622              		.cfi_offset 14, -4
 623 0002 0546     		mov	r5, r0
 213:Core/Src/main.c ****     int currentState = !KBD_get_button_state(button->name);
 624              		.loc 1 213 5 is_stmt 1 view .LVU143
 625              		.loc 1 213 25 is_stmt 0 view .LVU144
 626 0004 0078     		ldrb	r0, [r0]	@ zero_extendqisi2
 627              	.LVL38:
 628              		.loc 1 213 25 view .LVU145
 629 0006 FFF7FEFF 		bl	KBD_get_button_state
 630              	.LVL39:
ARM GAS  /tmp/ccPctUpA.s 			page 16


 631              		.loc 1 213 24 view .LVU146
 632 000a 0646     		mov	r6, r0
 633 000c B0FA80F4 		clz	r4, r0
 634 0010 6409     		lsrs	r4, r4, #5
 635              	.LVL40:
 214:Core/Src/main.c ****     uint32_t debounceInterval = 15;
 636              		.loc 1 214 5 is_stmt 1 view .LVU147
 215:Core/Src/main.c ****     uint32_t currentTick = HAL_GetTick();
 637              		.loc 1 215 5 view .LVU148
 638              		.loc 1 215 28 is_stmt 0 view .LVU149
 639 0012 FFF7FEFF 		bl	HAL_GetTick
 640              	.LVL41:
 216:Core/Src/main.c ****     int isPressed = 0; // false by default
 641              		.loc 1 216 5 is_stmt 1 view .LVU150
 217:Core/Src/main.c **** 
 218:Core/Src/main.c ****     if (currentState && !button->previousState && (currentTick - button->lastPressTime > debounceIn
 642              		.loc 1 218 5 view .LVU151
 643              		.loc 1 218 8 is_stmt 0 view .LVU152
 644 0016 4EB9     		cbnz	r6, .L52
 645 0018 0346     		mov	r3, r0
 646              		.loc 1 218 32 discriminator 1 view .LVU153
 647 001a 6868     		ldr	r0, [r5, #4]
 648              	.LVL42:
 649              		.loc 1 218 22 discriminator 1 view .LVU154
 650 001c 48B9     		cbnz	r0, .L53
 651              		.loc 1 218 72 discriminator 2 view .LVU155
 652 001e AA68     		ldr	r2, [r5, #8]
 653              		.loc 1 218 64 discriminator 2 view .LVU156
 654 0020 9A1A     		subs	r2, r3, r2
 655              		.loc 1 218 48 discriminator 2 view .LVU157
 656 0022 0F2A     		cmp	r2, #15
 657 0024 03D9     		bls	.L51
 219:Core/Src/main.c ****             button->lastPressTime = currentTick; // Update the last press time
 658              		.loc 1 219 13 is_stmt 1 view .LVU158
 659              		.loc 1 219 35 is_stmt 0 view .LVU159
 660 0026 AB60     		str	r3, [r5, #8]
 220:Core/Src/main.c ****             isPressed = 1;
 661              		.loc 1 220 13 is_stmt 1 view .LVU160
 662              	.LVL43:
 663              		.loc 1 220 23 is_stmt 0 view .LVU161
 664 0028 0120     		movs	r0, #1
 665 002a 00E0     		b	.L51
 666              	.LVL44:
 667              	.L52:
 216:Core/Src/main.c **** 
 668              		.loc 1 216 9 view .LVU162
 669 002c 0020     		movs	r0, #0
 670              	.LVL45:
 671              	.L51:
 221:Core/Src/main.c ****         }
 222:Core/Src/main.c **** 
 223:Core/Src/main.c **** 
 224:Core/Src/main.c ****     button->previousState = currentState;
 672              		.loc 1 224 5 is_stmt 1 view .LVU163
 673              		.loc 1 224 27 is_stmt 0 view .LVU164
 674 002e 6C60     		str	r4, [r5, #4]
 225:Core/Src/main.c ****     return isPressed;
ARM GAS  /tmp/ccPctUpA.s 			page 17


 675              		.loc 1 225 5 is_stmt 1 view .LVU165
 226:Core/Src/main.c **** }
 676              		.loc 1 226 1 is_stmt 0 view .LVU166
 677 0030 70BD     		pop	{r4, r5, r6, pc}
 678              	.LVL46:
 679              	.L53:
 216:Core/Src/main.c **** 
 680              		.loc 1 216 9 view .LVU167
 681 0032 0020     		movs	r0, #0
 682 0034 FBE7     		b	.L51
 683              		.cfi_endproc
 684              	.LFE1449:
 686              		.section	.text.handleButtons,"ax",%progbits
 687              		.align	1
 688              		.global	handleButtons
 689              		.syntax unified
 690              		.thumb
 691              		.thumb_func
 693              	handleButtons:
 694              	.LFB1450:
 227:Core/Src/main.c **** 
 228:Core/Src/main.c **** int handleButtons() {
 695              		.loc 1 228 21 is_stmt 1 view -0
 696              		.cfi_startproc
 697              		@ args = 0, pretend = 0, frame = 0
 698              		@ frame_needed = 0, uses_anonymous_args = 0
 699 0000 10B5     		push	{r4, lr}
 700              	.LCFI17:
 701              		.cfi_def_cfa_offset 8
 702              		.cfi_offset 4, -8
 703              		.cfi_offset 14, -4
 229:Core/Src/main.c ****   if (isButtonPressed(&right)) return 1;
 704              		.loc 1 229 3 view .LVU169
 705              		.loc 1 229 7 is_stmt 0 view .LVU170
 706 0002 1348     		ldr	r0, .L64
 707 0004 FFF7FEFF 		bl	isButtonPressed
 708              	.LVL47:
 709              		.loc 1 229 6 view .LVU171
 710 0008 10B1     		cbz	r0, .L63
 711              		.loc 1 229 39 view .LVU172
 712 000a 0124     		movs	r4, #1
 713              	.L55:
 230:Core/Src/main.c ****   if (isButtonPressed(&left)) return 3;
 231:Core/Src/main.c ****   if (isButtonPressed(&up)) return 0;
 232:Core/Src/main.c ****   if (isButtonPressed(&down)) return 2;
 233:Core/Src/main.c ****   if (isButtonPressed(&ok)) return 5;
 234:Core/Src/main.c ****   if (isButtonPressed(&esc)) return 6;
 235:Core/Src/main.c ****   else return 4;
 236:Core/Src/main.c **** }
 714              		.loc 1 236 1 view .LVU173
 715 000c 2046     		mov	r0, r4
 716 000e 10BD     		pop	{r4, pc}
 717              	.L63:
 230:Core/Src/main.c ****   if (isButtonPressed(&left)) return 3;
 718              		.loc 1 230 3 is_stmt 1 view .LVU174
 230:Core/Src/main.c ****   if (isButtonPressed(&left)) return 3;
 719              		.loc 1 230 7 is_stmt 0 view .LVU175
ARM GAS  /tmp/ccPctUpA.s 			page 18


 720 0010 1048     		ldr	r0, .L64+4
 721 0012 FFF7FEFF 		bl	isButtonPressed
 722              	.LVL48:
 230:Core/Src/main.c ****   if (isButtonPressed(&left)) return 3;
 723              		.loc 1 230 6 view .LVU176
 724 0016 0446     		mov	r4, r0
 725 0018 90B9     		cbnz	r0, .L58
 231:Core/Src/main.c ****   if (isButtonPressed(&down)) return 2;
 726              		.loc 1 231 3 is_stmt 1 view .LVU177
 231:Core/Src/main.c ****   if (isButtonPressed(&down)) return 2;
 727              		.loc 1 231 7 is_stmt 0 view .LVU178
 728 001a 0F48     		ldr	r0, .L64+8
 729 001c FFF7FEFF 		bl	isButtonPressed
 730              	.LVL49:
 231:Core/Src/main.c ****   if (isButtonPressed(&down)) return 2;
 731              		.loc 1 231 6 view .LVU179
 732 0020 0028     		cmp	r0, #0
 733 0022 F3D1     		bne	.L55
 232:Core/Src/main.c ****   if (isButtonPressed(&ok)) return 5;
 734              		.loc 1 232 3 is_stmt 1 view .LVU180
 232:Core/Src/main.c ****   if (isButtonPressed(&ok)) return 5;
 735              		.loc 1 232 7 is_stmt 0 view .LVU181
 736 0024 0D48     		ldr	r0, .L64+12
 737 0026 FFF7FEFF 		bl	isButtonPressed
 738              	.LVL50:
 232:Core/Src/main.c ****   if (isButtonPressed(&ok)) return 5;
 739              		.loc 1 232 6 view .LVU182
 740 002a 58B9     		cbnz	r0, .L59
 233:Core/Src/main.c ****   if (isButtonPressed(&esc)) return 6;
 741              		.loc 1 233 3 is_stmt 1 view .LVU183
 233:Core/Src/main.c ****   if (isButtonPressed(&esc)) return 6;
 742              		.loc 1 233 7 is_stmt 0 view .LVU184
 743 002c 0C48     		ldr	r0, .L64+16
 744 002e FFF7FEFF 		bl	isButtonPressed
 745              	.LVL51:
 233:Core/Src/main.c ****   if (isButtonPressed(&esc)) return 6;
 746              		.loc 1 233 6 view .LVU185
 747 0032 48B9     		cbnz	r0, .L60
 234:Core/Src/main.c ****   else return 4;
 748              		.loc 1 234 3 is_stmt 1 view .LVU186
 234:Core/Src/main.c ****   else return 4;
 749              		.loc 1 234 7 is_stmt 0 view .LVU187
 750 0034 0B48     		ldr	r0, .L64+20
 751 0036 FFF7FEFF 		bl	isButtonPressed
 752              	.LVL52:
 234:Core/Src/main.c ****   else return 4;
 753              		.loc 1 234 6 view .LVU188
 754 003a 38B1     		cbz	r0, .L61
 234:Core/Src/main.c ****   else return 4;
 755              		.loc 1 234 37 view .LVU189
 756 003c 0624     		movs	r4, #6
 757 003e E5E7     		b	.L55
 758              	.L58:
 230:Core/Src/main.c ****   if (isButtonPressed(&up)) return 0;
 759              		.loc 1 230 38 view .LVU190
 760 0040 0324     		movs	r4, #3
 761 0042 E3E7     		b	.L55
ARM GAS  /tmp/ccPctUpA.s 			page 19


 762              	.L59:
 232:Core/Src/main.c ****   if (isButtonPressed(&ok)) return 5;
 763              		.loc 1 232 38 view .LVU191
 764 0044 0224     		movs	r4, #2
 765 0046 E1E7     		b	.L55
 766              	.L60:
 233:Core/Src/main.c ****   if (isButtonPressed(&esc)) return 6;
 767              		.loc 1 233 36 view .LVU192
 768 0048 0524     		movs	r4, #5
 769 004a DFE7     		b	.L55
 770              	.L61:
 235:Core/Src/main.c **** }
 771              		.loc 1 235 15 view .LVU193
 772 004c 0424     		movs	r4, #4
 773 004e DDE7     		b	.L55
 774              	.L65:
 775              		.align	2
 776              	.L64:
 777 0050 00000000 		.word	.LANCHOR4
 778 0054 00000000 		.word	.LANCHOR5
 779 0058 00000000 		.word	.LANCHOR6
 780 005c 00000000 		.word	.LANCHOR7
 781 0060 00000000 		.word	.LANCHOR8
 782 0064 00000000 		.word	.LANCHOR9
 783              		.cfi_endproc
 784              	.LFE1450:
 786              		.section	.text.handleJoystick,"ax",%progbits
 787              		.align	1
 788              		.global	handleJoystick
 789              		.syntax unified
 790              		.thumb
 791              		.thumb_func
 793              	handleJoystick:
 794              	.LFB1451:
 237:Core/Src/main.c **** 
 238:Core/Src/main.c **** 
 239:Core/Src/main.c **** int handleJoystick() {
 795              		.loc 1 239 22 is_stmt 1 view -0
 796              		.cfi_startproc
 797              		@ args = 0, pretend = 0, frame = 0
 798              		@ frame_needed = 0, uses_anonymous_args = 0
 799 0000 38B5     		push	{r3, r4, r5, lr}
 800              	.LCFI18:
 801              		.cfi_def_cfa_offset 16
 802              		.cfi_offset 3, -16
 803              		.cfi_offset 4, -12
 804              		.cfi_offset 5, -8
 805              		.cfi_offset 14, -4
 240:Core/Src/main.c **** 	HAL_ADC_Start(&hadc4);
 806              		.loc 1 240 2 view .LVU195
 807 0002 174C     		ldr	r4, .L71
 808 0004 2046     		mov	r0, r4
 809 0006 FFF7FEFF 		bl	HAL_ADC_Start
 810              	.LVL53:
 241:Core/Src/main.c **** 	HAL_ADC_PollForConversion(&hadc4,10);// Waiting for ADC conversion
 811              		.loc 1 241 2 view .LVU196
 812 000a 0A21     		movs	r1, #10
ARM GAS  /tmp/ccPctUpA.s 			page 20


 813 000c 2046     		mov	r0, r4
 814 000e FFF7FEFF 		bl	HAL_ADC_PollForConversion
 815              	.LVL54:
 242:Core/Src/main.c **** 	joystick_raw.x=HAL_ADC_GetValue(&hadc4);
 816              		.loc 1 242 2 view .LVU197
 817              		.loc 1 242 17 is_stmt 0 view .LVU198
 818 0012 2046     		mov	r0, r4
 819 0014 FFF7FEFF 		bl	HAL_ADC_GetValue
 820              	.LVL55:
 821              		.loc 1 242 16 view .LVU199
 822 0018 124D     		ldr	r5, .L71+4
 823 001a 2860     		str	r0, [r5]
 243:Core/Src/main.c **** 
 244:Core/Src/main.c **** 	HAL_ADC_Start(&hadc4);
 824              		.loc 1 244 2 is_stmt 1 view .LVU200
 825 001c 2046     		mov	r0, r4
 826 001e FFF7FEFF 		bl	HAL_ADC_Start
 827              	.LVL56:
 245:Core/Src/main.c **** 	HAL_ADC_PollForConversion(&hadc4,10);// Waiting for ADC conversion
 828              		.loc 1 245 2 view .LVU201
 829 0022 0A21     		movs	r1, #10
 830 0024 2046     		mov	r0, r4
 831 0026 FFF7FEFF 		bl	HAL_ADC_PollForConversion
 832              	.LVL57:
 246:Core/Src/main.c **** 	joystick_raw.y=HAL_ADC_GetValue(&hadc4);
 833              		.loc 1 246 2 view .LVU202
 834              		.loc 1 246 17 is_stmt 0 view .LVU203
 835 002a 2046     		mov	r0, r4
 836 002c FFF7FEFF 		bl	HAL_ADC_GetValue
 837              	.LVL58:
 838              		.loc 1 246 16 view .LVU204
 839 0030 6860     		str	r0, [r5, #4]
 247:Core/Src/main.c **** 	HAL_ADC_Stop(&hadc4);
 840              		.loc 1 247 2 is_stmt 1 view .LVU205
 841 0032 2046     		mov	r0, r4
 842 0034 FFF7FEFF 		bl	HAL_ADC_Stop
 843              	.LVL59:
 248:Core/Src/main.c **** 
 249:Core/Src/main.c **** 	joystick_get(&joystick_raw, &joystick_out, &joystick);
 844              		.loc 1 249 2 view .LVU206
 845 0038 0B4C     		ldr	r4, .L71+8
 846 003a 0C4A     		ldr	r2, .L71+12
 847 003c 2146     		mov	r1, r4
 848 003e 2846     		mov	r0, r5
 849 0040 FFF7FEFF 		bl	joystick_get
 850              	.LVL60:
 250:Core/Src/main.c **** 	if (joystick_out.x > 0) return 1;
 851              		.loc 1 250 2 view .LVU207
 852              		.loc 1 250 18 is_stmt 0 view .LVU208
 853 0044 2368     		ldr	r3, [r4]
 854              		.loc 1 250 5 view .LVU209
 855 0046 002B     		cmp	r3, #0
 856 0048 04DC     		bgt	.L68
 251:Core/Src/main.c **** 	else if (joystick_out.x <-18) return -1;
 857              		.loc 1 251 7 is_stmt 1 view .LVU210
 858              		.loc 1 251 10 is_stmt 0 view .LVU211
 859 004a 13F1120F 		cmn	r3, #18
ARM GAS  /tmp/ccPctUpA.s 			page 21


 860 004e 03DB     		blt	.L69
 252:Core/Src/main.c **** 	return 0;
 861              		.loc 1 252 9 view .LVU212
 862 0050 0020     		movs	r0, #0
 863 0052 00E0     		b	.L66
 864              	.L68:
 250:Core/Src/main.c **** 	if (joystick_out.x > 0) return 1;
 865              		.loc 1 250 33 view .LVU213
 866 0054 0120     		movs	r0, #1
 867              	.L66:
 253:Core/Src/main.c **** }
 868              		.loc 1 253 1 view .LVU214
 869 0056 38BD     		pop	{r3, r4, r5, pc}
 870              	.L69:
 251:Core/Src/main.c **** 	else if (joystick_out.x <-18) return -1;
 871              		.loc 1 251 39 view .LVU215
 872 0058 4FF0FF30 		mov	r0, #-1
 873 005c FBE7     		b	.L66
 874              	.L72:
 875 005e 00BF     		.align	2
 876              	.L71:
 877 0060 00000000 		.word	hadc4
 878 0064 00000000 		.word	.LANCHOR10
 879 0068 00000000 		.word	.LANCHOR12
 880 006c 00000000 		.word	.LANCHOR11
 881              		.cfi_endproc
 882              	.LFE1451:
 884              		.section	.rodata.DrawStartScreen.str1.4,"aMS",%progbits,1
 885              		.align	2
 886              	.LC0:
 887 0000 54455452 		.ascii	"TETRIS\000"
 887      495300
 888 0007 00       		.align	2
 889              	.LC1:
 890 0008 50524553 		.ascii	"PRESS OK TO PLAY\000"
 890      53204F4B 
 890      20544F20 
 890      504C4159 
 890      00
 891 0019 000000   		.align	2
 892              	.LC2:
 893 001c 524F5441 		.ascii	"ROTATIONS ENABLED\000"
 893      54494F4E 
 893      5320454E 
 893      41424C45 
 893      4400
 894 002e 0000     		.align	2
 895              	.LC3:
 896 0030 524F5441 		.ascii	"ROTATIONS DISABLED\000"
 896      54494F4E 
 896      53204449 
 896      5341424C 
 896      454400
 897              		.section	.text.DrawStartScreen,"ax",%progbits
 898              		.align	1
 899              		.global	DrawStartScreen
 900              		.syntax unified
ARM GAS  /tmp/ccPctUpA.s 			page 22


 901              		.thumb
 902              		.thumb_func
 904              	DrawStartScreen:
 905              	.LFB1452:
 254:Core/Src/main.c **** 
 255:Core/Src/main.c **** 
 256:Core/Src/main.c **** void DrawStartScreen()
 257:Core/Src/main.c **** {
 906              		.loc 1 257 1 is_stmt 1 view -0
 907              		.cfi_startproc
 908              		@ args = 0, pretend = 0, frame = 0
 909              		@ frame_needed = 0, uses_anonymous_args = 0
 910 0000 38B5     		push	{r3, r4, r5, lr}
 911              	.LCFI19:
 912              		.cfi_def_cfa_offset 16
 913              		.cfi_offset 3, -16
 914              		.cfi_offset 4, -12
 915              		.cfi_offset 5, -8
 916              		.cfi_offset 14, -4
 258:Core/Src/main.c **** 		UG_FontSelect(&FONT_32X53);
 917              		.loc 1 258 3 view .LVU217
 918 0002 1D48     		ldr	r0, .L79
 919 0004 FFF7FEFF 		bl	UG_FontSelect
 920              	.LVL61:
 259:Core/Src/main.c **** 		UG_SetForecolor(C_GREEN);
 921              		.loc 1 259 3 view .LVU218
 922 0008 4FF4FC60 		mov	r0, #2016
 923 000c FFF7FEFF 		bl	UG_SetForecolor
 924              	.LVL62:
 260:Core/Src/main.c **** 		UG_PutString(p_x-2,p_y,"TETRIS");
 925              		.loc 1 260 3 view .LVU219
 926 0010 1A4D     		ldr	r5, .L79+4
 927 0012 1B4C     		ldr	r4, .L79+8
 928 0014 2088     		ldrh	r0, [r4]
 929 0016 1B4A     		ldr	r2, .L79+12
 930 0018 2988     		ldrh	r1, [r5]
 931 001a 0238     		subs	r0, r0, #2
 932 001c FFF7FEFF 		bl	UG_PutString
 933              	.LVL63:
 261:Core/Src/main.c **** 		UG_FontSelect(&FONT_12X16);
 934              		.loc 1 261 3 view .LVU220
 935 0020 1948     		ldr	r0, .L79+16
 936 0022 FFF7FEFF 		bl	UG_FontSelect
 937              	.LVL64:
 262:Core/Src/main.c **** 		UG_SetForecolor(C_WHITE);
 938              		.loc 1 262 3 view .LVU221
 939 0026 4FF6FF70 		movw	r0, #65535
 940 002a FFF7FEFF 		bl	UG_SetForecolor
 941              	.LVL65:
 263:Core/Src/main.c **** 		UG_PutString(p_x-8, p_y + 100,"PRESS OK TO PLAY");
 942              		.loc 1 263 3 view .LVU222
 943 002e 2988     		ldrh	r1, [r5]
 944 0030 2088     		ldrh	r0, [r4]
 945 0032 164A     		ldr	r2, .L79+20
 946 0034 6431     		adds	r1, r1, #100
 947 0036 0838     		subs	r0, r0, #8
 948 0038 FFF7FEFF 		bl	UG_PutString
ARM GAS  /tmp/ccPctUpA.s 			page 23


 949              	.LVL66:
 264:Core/Src/main.c **** 		if (rotations == 1) UG_PutString(p_x-20, p_y + 150,"ROTATIONS ENABLED");
 950              		.loc 1 264 3 view .LVU223
 951              		.loc 1 264 17 is_stmt 0 view .LVU224
 952 003c 144B     		ldr	r3, .L79+24
 953 003e 1B68     		ldr	r3, [r3]
 954              		.loc 1 264 6 view .LVU225
 955 0040 012B     		cmp	r3, #1
 956 0042 06D0     		beq	.L77
 957              	.L74:
 265:Core/Src/main.c **** 		if (rotations == 0) UG_PutString(p_x-20, p_y + 150,"ROTATIONS DISABLED");
 958              		.loc 1 265 3 is_stmt 1 view .LVU226
 959              		.loc 1 265 17 is_stmt 0 view .LVU227
 960 0044 124B     		ldr	r3, .L79+24
 961 0046 1B68     		ldr	r3, [r3]
 962              		.loc 1 265 6 view .LVU228
 963 0048 5BB1     		cbz	r3, .L78
 964              	.L75:
 266:Core/Src/main.c **** 		HAL_Delay(100);
 965              		.loc 1 266 3 is_stmt 1 view .LVU229
 966 004a 6420     		movs	r0, #100
 967 004c FFF7FEFF 		bl	HAL_Delay
 968              	.LVL67:
 267:Core/Src/main.c **** 
 268:Core/Src/main.c **** }
 969              		.loc 1 268 1 is_stmt 0 view .LVU230
 970 0050 38BD     		pop	{r3, r4, r5, pc}
 971              	.L77:
 264:Core/Src/main.c **** 		if (rotations == 0) UG_PutString(p_x-20, p_y + 150,"ROTATIONS DISABLED");
 972              		.loc 1 264 23 is_stmt 1 discriminator 1 view .LVU231
 973 0052 2988     		ldrh	r1, [r5]
 974 0054 2088     		ldrh	r0, [r4]
 975 0056 0F4A     		ldr	r2, .L79+28
 976 0058 9631     		adds	r1, r1, #150
 977 005a 1438     		subs	r0, r0, #20
 978 005c FFF7FEFF 		bl	UG_PutString
 979              	.LVL68:
 980 0060 F0E7     		b	.L74
 981              	.L78:
 265:Core/Src/main.c **** 		HAL_Delay(100);
 982              		.loc 1 265 23 discriminator 1 view .LVU232
 983 0062 064B     		ldr	r3, .L79+4
 984 0064 1988     		ldrh	r1, [r3]
 985 0066 064B     		ldr	r3, .L79+8
 986 0068 1888     		ldrh	r0, [r3]
 987 006a 0B4A     		ldr	r2, .L79+32
 988 006c 9631     		adds	r1, r1, #150
 989 006e 1438     		subs	r0, r0, #20
 990 0070 FFF7FEFF 		bl	UG_PutString
 991              	.LVL69:
 992 0074 E9E7     		b	.L75
 993              	.L80:
 994 0076 00BF     		.align	2
 995              	.L79:
 996 0078 00000000 		.word	FONT_32X53
 997 007c 00000000 		.word	.LANCHOR13
 998 0080 00000000 		.word	.LANCHOR14
ARM GAS  /tmp/ccPctUpA.s 			page 24


 999 0084 00000000 		.word	.LC0
 1000 0088 00000000 		.word	FONT_12X16
 1001 008c 08000000 		.word	.LC1
 1002 0090 00000000 		.word	.LANCHOR15
 1003 0094 1C000000 		.word	.LC2
 1004 0098 30000000 		.word	.LC3
 1005              		.cfi_endproc
 1006              	.LFE1452:
 1008              		.section	.rodata.DrawGameOverScreen.str1.4,"aMS",%progbits,1
 1009              		.align	2
 1010              	.LC4:
 1011 0000 256400   		.ascii	"%d\000"
 1012 0003 00       		.align	2
 1013              	.LC5:
 1014 0004 47414D45 		.ascii	"GAME OVER\000"
 1014      204F5645 
 1014      5200
 1015 000e 0000     		.align	2
 1016              	.LC6:
 1017 0010 53434F52 		.ascii	"SCORE:\000"
 1017      453A00
 1018 0017 00       		.align	2
 1019              	.LC7:
 1020 0018 50524553 		.ascii	"PRESS OK TO TRY AGAIN\000"
 1020      53204F4B 
 1020      20544F20 
 1020      54525920 
 1020      41474149 
 1021              		.section	.text.DrawGameOverScreen,"ax",%progbits
 1022              		.align	1
 1023              		.global	DrawGameOverScreen
 1024              		.syntax unified
 1025              		.thumb
 1026              		.thumb_func
 1028              	DrawGameOverScreen:
 1029              	.LFB1453:
 269:Core/Src/main.c **** 
 270:Core/Src/main.c **** 
 271:Core/Src/main.c **** void DrawGameOverScreen()
 272:Core/Src/main.c **** {
 1030              		.loc 1 272 1 view -0
 1031              		.cfi_startproc
 1032              		@ args = 0, pretend = 0, frame = 16
 1033              		@ frame_needed = 0, uses_anonymous_args = 0
 1034 0000 10B5     		push	{r4, lr}
 1035              	.LCFI20:
 1036              		.cfi_def_cfa_offset 8
 1037              		.cfi_offset 4, -8
 1038              		.cfi_offset 14, -4
 1039 0002 84B0     		sub	sp, sp, #16
 1040              	.LCFI21:
 1041              		.cfi_def_cfa_offset 24
 273:Core/Src/main.c **** 		UG_FontSelect(&FONT_32X53);
 1042              		.loc 1 273 3 view .LVU234
 1043 0004 1848     		ldr	r0, .L83
 1044 0006 FFF7FEFF 		bl	UG_FontSelect
 1045              	.LVL70:
ARM GAS  /tmp/ccPctUpA.s 			page 25


 274:Core/Src/main.c **** 
 275:Core/Src/main.c **** 		char scoreString[10];
 1046              		.loc 1 275 3 view .LVU235
 276:Core/Src/main.c **** 		sprintf(scoreString, "%d", score);
 1047              		.loc 1 276 3 view .LVU236
 1048 000a 184B     		ldr	r3, .L83+4
 1049 000c 1A68     		ldr	r2, [r3]
 1050 000e 1849     		ldr	r1, .L83+8
 1051 0010 01A8     		add	r0, sp, #4
 1052 0012 FFF7FEFF 		bl	sprintf
 1053              	.LVL71:
 277:Core/Src/main.c **** 
 278:Core/Src/main.c **** 		UG_SetForecolor(C_RED);
 1054              		.loc 1 278 3 view .LVU237
 1055 0016 4FF47840 		mov	r0, #63488
 1056 001a FFF7FEFF 		bl	UG_SetForecolor
 1057              	.LVL72:
 279:Core/Src/main.c **** 		UG_PutString(10,p_y,"GAME OVER");
 1058              		.loc 1 279 3 view .LVU238
 1059 001e 154C     		ldr	r4, .L83+12
 1060 0020 154A     		ldr	r2, .L83+16
 1061 0022 2188     		ldrh	r1, [r4]
 1062 0024 0A20     		movs	r0, #10
 1063 0026 FFF7FEFF 		bl	UG_PutString
 1064              	.LVL73:
 280:Core/Src/main.c **** 		UG_FontSelect(&FONT_12X16);
 1065              		.loc 1 280 3 view .LVU239
 1066 002a 1448     		ldr	r0, .L83+20
 1067 002c FFF7FEFF 		bl	UG_FontSelect
 1068              	.LVL74:
 281:Core/Src/main.c **** 		UG_SetForecolor(C_WHITE);
 1069              		.loc 1 281 3 view .LVU240
 1070 0030 4FF6FF70 		movw	r0, #65535
 1071 0034 FFF7FEFF 		bl	UG_SetForecolor
 1072              	.LVL75:
 282:Core/Src/main.c **** 		UG_PutString(100,p_y + 100,"SCORE:");
 1073              		.loc 1 282 3 view .LVU241
 1074 0038 2188     		ldrh	r1, [r4]
 1075 003a 114A     		ldr	r2, .L83+24
 1076 003c 6431     		adds	r1, r1, #100
 1077 003e 6420     		movs	r0, #100
 1078 0040 FFF7FEFF 		bl	UG_PutString
 1079              	.LVL76:
 283:Core/Src/main.c **** 		UG_PutString(190,p_y + 100, scoreString);
 1080              		.loc 1 283 3 view .LVU242
 1081 0044 2188     		ldrh	r1, [r4]
 1082 0046 01AA     		add	r2, sp, #4
 1083 0048 6431     		adds	r1, r1, #100
 1084 004a BE20     		movs	r0, #190
 1085 004c FFF7FEFF 		bl	UG_PutString
 1086              	.LVL77:
 284:Core/Src/main.c **** 		UG_PutString(21,p_y + 180,"PRESS OK TO TRY AGAIN");
 1087              		.loc 1 284 3 view .LVU243
 1088 0050 2188     		ldrh	r1, [r4]
 1089 0052 0C4A     		ldr	r2, .L83+28
 1090 0054 B431     		adds	r1, r1, #180
 1091 0056 1520     		movs	r0, #21
ARM GAS  /tmp/ccPctUpA.s 			page 26


 1092 0058 FFF7FEFF 		bl	UG_PutString
 1093              	.LVL78:
 285:Core/Src/main.c **** 		HAL_Delay(100);
 1094              		.loc 1 285 3 view .LVU244
 1095 005c 6420     		movs	r0, #100
 1096 005e FFF7FEFF 		bl	HAL_Delay
 1097              	.LVL79:
 286:Core/Src/main.c **** 
 287:Core/Src/main.c **** }
 1098              		.loc 1 287 1 is_stmt 0 view .LVU245
 1099 0062 04B0     		add	sp, sp, #16
 1100              	.LCFI22:
 1101              		.cfi_def_cfa_offset 8
 1102              		@ sp needed
 1103 0064 10BD     		pop	{r4, pc}
 1104              	.L84:
 1105 0066 00BF     		.align	2
 1106              	.L83:
 1107 0068 00000000 		.word	FONT_32X53
 1108 006c 00000000 		.word	.LANCHOR2
 1109 0070 00000000 		.word	.LC4
 1110 0074 00000000 		.word	.LANCHOR13
 1111 0078 04000000 		.word	.LC5
 1112 007c 00000000 		.word	FONT_12X16
 1113 0080 10000000 		.word	.LC6
 1114 0084 18000000 		.word	.LC7
 1115              		.cfi_endproc
 1116              	.LFE1453:
 1118              		.section	.text.toggle,"ax",%progbits
 1119              		.align	1
 1120              		.global	toggle
 1121              		.syntax unified
 1122              		.thumb
 1123              		.thumb_func
 1125              	toggle:
 1126              	.LVL80:
 1127              	.LFB1454:
 288:Core/Src/main.c **** 
 289:Core/Src/main.c **** int toggle(int rotations) {
 1128              		.loc 1 289 27 is_stmt 1 view -0
 1129              		.cfi_startproc
 1130              		@ args = 0, pretend = 0, frame = 0
 1131              		@ frame_needed = 0, uses_anonymous_args = 0
 1132              		@ link register save eliminated.
 290:Core/Src/main.c **** 	if (rotations == 1) return 0;
 1133              		.loc 1 290 2 view .LVU247
 1134              		.loc 1 290 5 is_stmt 0 view .LVU248
 1135 0000 0128     		cmp	r0, #1
 1136 0002 01D0     		beq	.L87
 291:Core/Src/main.c **** 	if (rotations == 0) return 1;
 1137              		.loc 1 291 2 is_stmt 1 view .LVU249
 1138              		.loc 1 291 5 is_stmt 0 view .LVU250
 1139 0004 10B1     		cbz	r0, .L88
 1140              	.LVL81:
 292:Core/Src/main.c **** }
 1141              		.loc 1 292 1 view .LVU251
 1142 0006 7047     		bx	lr
ARM GAS  /tmp/ccPctUpA.s 			page 27


 1143              	.LVL82:
 1144              	.L87:
 290:Core/Src/main.c **** 	if (rotations == 1) return 0;
 1145              		.loc 1 290 29 view .LVU252
 1146 0008 0020     		movs	r0, #0
 1147              	.LVL83:
 290:Core/Src/main.c **** 	if (rotations == 1) return 0;
 1148              		.loc 1 290 29 view .LVU253
 1149 000a 7047     		bx	lr
 1150              	.LVL84:
 1151              	.L88:
 291:Core/Src/main.c **** 	if (rotations == 0) return 1;
 1152              		.loc 1 291 29 view .LVU254
 1153 000c 0120     		movs	r0, #1
 1154              	.LVL85:
 1155              		.loc 1 292 1 view .LVU255
 1156 000e 7047     		bx	lr
 1157              		.cfi_endproc
 1158              	.LFE1454:
 1160              		.section	.text.Error_Handler,"ax",%progbits
 1161              		.align	1
 1162              		.global	Error_Handler
 1163              		.syntax unified
 1164              		.thumb
 1165              		.thumb_func
 1167              	Error_Handler:
 1168              	.LFB1457:
 293:Core/Src/main.c **** 
 294:Core/Src/main.c **** 
 295:Core/Src/main.c **** 
 296:Core/Src/main.c **** /* USER CODE END 0 */
 297:Core/Src/main.c **** 
 298:Core/Src/main.c **** /**
 299:Core/Src/main.c ****   * @brief  The application entry point.
 300:Core/Src/main.c ****   * @retval int
 301:Core/Src/main.c ****   */
 302:Core/Src/main.c **** int main(void)
 303:Core/Src/main.c **** {
 304:Core/Src/main.c ****   /* USER CODE BEGIN 1 */
 305:Core/Src/main.c **** 	int rotationInput;
 306:Core/Src/main.c **** 	Tetromino t;
 307:Core/Src/main.c **** 	GameState currentState = START_SCREEN;
 308:Core/Src/main.c ****   /* USER CODE END 1 */
 309:Core/Src/main.c **** 
 310:Core/Src/main.c ****   /* MCU Configuration--------------------------------------------------------*/
 311:Core/Src/main.c **** 
 312:Core/Src/main.c ****   /* Reset of all peripherals, Initializes the Flash interface and the Systick. */
 313:Core/Src/main.c ****   HAL_Init();
 314:Core/Src/main.c **** 
 315:Core/Src/main.c ****   /* USER CODE BEGIN Init */
 316:Core/Src/main.c **** 
 317:Core/Src/main.c ****   /* USER CODE END Init */
 318:Core/Src/main.c **** 
 319:Core/Src/main.c ****   /* Configure the system clock */
 320:Core/Src/main.c ****   SystemClock_Config();
 321:Core/Src/main.c **** 
 322:Core/Src/main.c ****   /* USER CODE BEGIN SysInit */
ARM GAS  /tmp/ccPctUpA.s 			page 28


 323:Core/Src/main.c **** 
 324:Core/Src/main.c ****   /* USER CODE END SysInit */
 325:Core/Src/main.c **** 
 326:Core/Src/main.c ****   /* Initialize all configured peripherals */
 327:Core/Src/main.c ****   MX_GPIO_Init();
 328:Core/Src/main.c ****   MX_DMA_Init();
 329:Core/Src/main.c ****   MX_ADC2_Init();
 330:Core/Src/main.c ****   MX_FMC_Init();
 331:Core/Src/main.c ****   MX_I2C2_Init();
 332:Core/Src/main.c ****   MX_UART4_Init();
 333:Core/Src/main.c ****   MX_UART5_Init();
 334:Core/Src/main.c ****   MX_USART1_UART_Init();
 335:Core/Src/main.c ****   MX_USART2_UART_Init();
 336:Core/Src/main.c ****   MX_QUADSPI1_Init();
 337:Core/Src/main.c ****   MX_SPI1_Init();
 338:Core/Src/main.c ****   MX_TIM5_Init();
 339:Core/Src/main.c ****   MX_TIM8_Init();
 340:Core/Src/main.c ****   MX_TIM20_Init();
 341:Core/Src/main.c ****   MX_ADC3_Init();
 342:Core/Src/main.c ****   MX_DAC1_Init();
 343:Core/Src/main.c ****   MX_DAC2_Init();
 344:Core/Src/main.c ****   MX_FDCAN2_Init();
 345:Core/Src/main.c ****   MX_I2C1_Init();
 346:Core/Src/main.c ****   MX_TIM15_Init();
 347:Core/Src/main.c ****   MX_USART3_UART_Init();
 348:Core/Src/main.c ****   MX_ADC4_Init();
 349:Core/Src/main.c ****   MX_USB_Device_Init();
 350:Core/Src/main.c ****   MX_ADC1_Init();
 351:Core/Src/main.c ****   MX_CRC_Init();
 352:Core/Src/main.c ****   MX_TIM6_Init();
 353:Core/Src/main.c ****   /* USER CODE BEGIN 2 */
 354:Core/Src/main.c **** 
 355:Core/Src/main.c ****   LED_init();
 356:Core/Src/main.c ****   KBD_init();
 357:Core/Src/main.c ****   SCI_init();
 358:Core/Src/main.c ****   joystick_init(&joystick);
 359:Core/Src/main.c **** 
 360:Core/Src/main.c **** //  for (uint8_t i=0;i<3;i++)
 361:Core/Src/main.c **** //  {
 362:Core/Src/main.c **** //	  HAL_Delay(250);
 363:Core/Src/main.c **** //	  LEDs_on(0xFF);
 364:Core/Src/main.c **** //	  HAL_Delay(250);
 365:Core/Src/main.c **** //	  LEDs_off(0xFF);
 366:Core/Src/main.c **** //  }
 367:Core/Src/main.c **** 
 368:Core/Src/main.c ****   LCD_Init();
 369:Core/Src/main.c ****   UG_Init(&gui, UserPixelSetFunction, ILI9341_GetParam(LCD_WIDTH), ILI9341_GetParam(LCD_HEIGHT));
 370:Core/Src/main.c ****   UG_FontSelect(&FONT_8X12);
 371:Core/Src/main.c ****   UG_SetForecolor(C_WHITE);
 372:Core/Src/main.c ****   UG_SetBackcolor(C_BLACK);
 373:Core/Src/main.c ****   UG_DriverRegister(DRIVER_FILL_FRAME, (void *)_HW_FillFrame_);
 374:Core/Src/main.c ****   UG_DriverEnable(DRIVER_FILL_FRAME);
 375:Core/Src/main.c **** 
 376:Core/Src/main.c ****   //
 377:Core/Src/main.c **** 
 378:Core/Src/main.c **** 
 379:Core/Src/main.c **** 
ARM GAS  /tmp/ccPctUpA.s 			page 29


 380:Core/Src/main.c **** //  UG_SetForecolor(C_WHITE);
 381:Core/Src/main.c **** //  UG_FontSelect(&FONT_16X26);
 382:Core/Src/main.c **** //  sprintf(str,"%.0f fps",framerate);
 383:Core/Src/main.c **** //  UG_PutString(5,105,str);
 384:Core/Src/main.c **** 
 385:Core/Src/main.c ****   /* USER CODE END 2 */
 386:Core/Src/main.c **** 
 387:Core/Src/main.c ****   /* Infinite loop */
 388:Core/Src/main.c ****   /* USER CODE BEGIN WHILE */
 389:Core/Src/main.c ****   while (1)
 390:Core/Src/main.c ****   {
 391:Core/Src/main.c ****     /* USER CODE END WHILE */
 392:Core/Src/main.c **** 
 393:Core/Src/main.c ****     /* USER CODE BEGIN 3 */
 394:Core/Src/main.c ****   }
 395:Core/Src/main.c ****   /* USER CODE END 3 */
 396:Core/Src/main.c **** }
 397:Core/Src/main.c **** 
 398:Core/Src/main.c **** /**
 399:Core/Src/main.c ****   * @brief System Clock Configuration
 400:Core/Src/main.c ****   * @retval None
 401:Core/Src/main.c ****   */
 402:Core/Src/main.c **** void SystemClock_Config(void)
 403:Core/Src/main.c **** {
 404:Core/Src/main.c ****   RCC_OscInitTypeDef RCC_OscInitStruct = {0};
 405:Core/Src/main.c ****   RCC_ClkInitTypeDef RCC_ClkInitStruct = {0};
 406:Core/Src/main.c **** 
 407:Core/Src/main.c ****   /** Configure the main internal regulator output voltage
 408:Core/Src/main.c ****   */
 409:Core/Src/main.c ****   HAL_PWREx_ControlVoltageScaling(PWR_REGULATOR_VOLTAGE_SCALE1_BOOST);
 410:Core/Src/main.c **** 
 411:Core/Src/main.c ****   /** Initializes the RCC Oscillators according to the specified parameters
 412:Core/Src/main.c ****   * in the RCC_OscInitTypeDef structure.
 413:Core/Src/main.c ****   */
 414:Core/Src/main.c ****   RCC_OscInitStruct.OscillatorType = RCC_OSCILLATORTYPE_HSI48|RCC_OSCILLATORTYPE_HSE;
 415:Core/Src/main.c ****   RCC_OscInitStruct.HSEState = RCC_HSE_BYPASS;
 416:Core/Src/main.c ****   RCC_OscInitStruct.HSI48State = RCC_HSI48_ON;
 417:Core/Src/main.c ****   RCC_OscInitStruct.PLL.PLLState = RCC_PLL_ON;
 418:Core/Src/main.c ****   RCC_OscInitStruct.PLL.PLLSource = RCC_PLLSOURCE_HSE;
 419:Core/Src/main.c ****   RCC_OscInitStruct.PLL.PLLM = RCC_PLLM_DIV2;
 420:Core/Src/main.c ****   RCC_OscInitStruct.PLL.PLLN = 85;
 421:Core/Src/main.c ****   RCC_OscInitStruct.PLL.PLLP = RCC_PLLP_DIV2;
 422:Core/Src/main.c ****   RCC_OscInitStruct.PLL.PLLQ = RCC_PLLQ_DIV6;
 423:Core/Src/main.c ****   RCC_OscInitStruct.PLL.PLLR = RCC_PLLR_DIV2;
 424:Core/Src/main.c ****   if (HAL_RCC_OscConfig(&RCC_OscInitStruct) != HAL_OK)
 425:Core/Src/main.c ****   {
 426:Core/Src/main.c ****     Error_Handler();
 427:Core/Src/main.c ****   }
 428:Core/Src/main.c **** 
 429:Core/Src/main.c ****   /** Initializes the CPU, AHB and APB buses clocks
 430:Core/Src/main.c ****   */
 431:Core/Src/main.c ****   RCC_ClkInitStruct.ClockType = RCC_CLOCKTYPE_HCLK|RCC_CLOCKTYPE_SYSCLK
 432:Core/Src/main.c ****                               |RCC_CLOCKTYPE_PCLK1|RCC_CLOCKTYPE_PCLK2;
 433:Core/Src/main.c ****   RCC_ClkInitStruct.SYSCLKSource = RCC_SYSCLKSOURCE_PLLCLK;
 434:Core/Src/main.c ****   RCC_ClkInitStruct.AHBCLKDivider = RCC_SYSCLK_DIV1;
 435:Core/Src/main.c ****   RCC_ClkInitStruct.APB1CLKDivider = RCC_HCLK_DIV1;
 436:Core/Src/main.c ****   RCC_ClkInitStruct.APB2CLKDivider = RCC_HCLK_DIV1;
ARM GAS  /tmp/ccPctUpA.s 			page 30


 437:Core/Src/main.c **** 
 438:Core/Src/main.c ****   if (HAL_RCC_ClockConfig(&RCC_ClkInitStruct, FLASH_LATENCY_4) != HAL_OK)
 439:Core/Src/main.c ****   {
 440:Core/Src/main.c ****     Error_Handler();
 441:Core/Src/main.c ****   }
 442:Core/Src/main.c **** }
 443:Core/Src/main.c **** 
 444:Core/Src/main.c **** /* USER CODE BEGIN 4 */
 445:Core/Src/main.c **** 
 446:Core/Src/main.c **** /* USER CODE END 4 */
 447:Core/Src/main.c **** 
 448:Core/Src/main.c **** /**
 449:Core/Src/main.c ****   * @brief  This function is executed in case of error occurrence.
 450:Core/Src/main.c ****   * @retval None
 451:Core/Src/main.c ****   */
 452:Core/Src/main.c **** void Error_Handler(void)
 453:Core/Src/main.c **** {
 1169              		.loc 1 453 1 is_stmt 1 view -0
 1170              		.cfi_startproc
 1171              		@ Volatile: function does not return.
 1172              		@ args = 0, pretend = 0, frame = 0
 1173              		@ frame_needed = 0, uses_anonymous_args = 0
 1174              		@ link register save eliminated.
 454:Core/Src/main.c ****   /* USER CODE BEGIN Error_Handler_Debug */
 455:Core/Src/main.c ****   /* User can add his own implementation to report the HAL error return state */
 456:Core/Src/main.c ****   __disable_irq();
 1175              		.loc 1 456 3 view .LVU257
 1176              	.LBB16:
 1177              	.LBI16:
 1178              		.file 2 "Drivers/CMSIS/Include/cmsis_gcc.h"
   1:Drivers/CMSIS/Include/cmsis_gcc.h **** /**************************************************************************//**
   2:Drivers/CMSIS/Include/cmsis_gcc.h ****  * @file     cmsis_gcc.h
   3:Drivers/CMSIS/Include/cmsis_gcc.h ****  * @brief    CMSIS compiler GCC header file
   4:Drivers/CMSIS/Include/cmsis_gcc.h ****  * @version  V5.2.0
   5:Drivers/CMSIS/Include/cmsis_gcc.h ****  * @date     08. May 2019
   6:Drivers/CMSIS/Include/cmsis_gcc.h ****  ******************************************************************************/
   7:Drivers/CMSIS/Include/cmsis_gcc.h **** /*
   8:Drivers/CMSIS/Include/cmsis_gcc.h ****  * Copyright (c) 2009-2019 Arm Limited. All rights reserved.
   9:Drivers/CMSIS/Include/cmsis_gcc.h ****  *
  10:Drivers/CMSIS/Include/cmsis_gcc.h ****  * SPDX-License-Identifier: Apache-2.0
  11:Drivers/CMSIS/Include/cmsis_gcc.h ****  *
  12:Drivers/CMSIS/Include/cmsis_gcc.h ****  * Licensed under the Apache License, Version 2.0 (the License); you may
  13:Drivers/CMSIS/Include/cmsis_gcc.h ****  * not use this file except in compliance with the License.
  14:Drivers/CMSIS/Include/cmsis_gcc.h ****  * You may obtain a copy of the License at
  15:Drivers/CMSIS/Include/cmsis_gcc.h ****  *
  16:Drivers/CMSIS/Include/cmsis_gcc.h ****  * www.apache.org/licenses/LICENSE-2.0
  17:Drivers/CMSIS/Include/cmsis_gcc.h ****  *
  18:Drivers/CMSIS/Include/cmsis_gcc.h ****  * Unless required by applicable law or agreed to in writing, software
  19:Drivers/CMSIS/Include/cmsis_gcc.h ****  * distributed under the License is distributed on an AS IS BASIS, WITHOUT
  20:Drivers/CMSIS/Include/cmsis_gcc.h ****  * WARRANTIES OR CONDITIONS OF ANY KIND, either express or implied.
  21:Drivers/CMSIS/Include/cmsis_gcc.h ****  * See the License for the specific language governing permissions and
  22:Drivers/CMSIS/Include/cmsis_gcc.h ****  * limitations under the License.
  23:Drivers/CMSIS/Include/cmsis_gcc.h ****  */
  24:Drivers/CMSIS/Include/cmsis_gcc.h **** 
  25:Drivers/CMSIS/Include/cmsis_gcc.h **** #ifndef __CMSIS_GCC_H
  26:Drivers/CMSIS/Include/cmsis_gcc.h **** #define __CMSIS_GCC_H
  27:Drivers/CMSIS/Include/cmsis_gcc.h **** 
ARM GAS  /tmp/ccPctUpA.s 			page 31


  28:Drivers/CMSIS/Include/cmsis_gcc.h **** /* ignore some GCC warnings */
  29:Drivers/CMSIS/Include/cmsis_gcc.h **** #pragma GCC diagnostic push
  30:Drivers/CMSIS/Include/cmsis_gcc.h **** #pragma GCC diagnostic ignored "-Wsign-conversion"
  31:Drivers/CMSIS/Include/cmsis_gcc.h **** #pragma GCC diagnostic ignored "-Wconversion"
  32:Drivers/CMSIS/Include/cmsis_gcc.h **** #pragma GCC diagnostic ignored "-Wunused-parameter"
  33:Drivers/CMSIS/Include/cmsis_gcc.h **** 
  34:Drivers/CMSIS/Include/cmsis_gcc.h **** /* Fallback for __has_builtin */
  35:Drivers/CMSIS/Include/cmsis_gcc.h **** #ifndef __has_builtin
  36:Drivers/CMSIS/Include/cmsis_gcc.h ****   #define __has_builtin(x) (0)
  37:Drivers/CMSIS/Include/cmsis_gcc.h **** #endif
  38:Drivers/CMSIS/Include/cmsis_gcc.h **** 
  39:Drivers/CMSIS/Include/cmsis_gcc.h **** /* CMSIS compiler specific defines */
  40:Drivers/CMSIS/Include/cmsis_gcc.h **** #ifndef   __ASM
  41:Drivers/CMSIS/Include/cmsis_gcc.h ****   #define __ASM                                  __asm
  42:Drivers/CMSIS/Include/cmsis_gcc.h **** #endif
  43:Drivers/CMSIS/Include/cmsis_gcc.h **** #ifndef   __INLINE
  44:Drivers/CMSIS/Include/cmsis_gcc.h ****   #define __INLINE                               inline
  45:Drivers/CMSIS/Include/cmsis_gcc.h **** #endif
  46:Drivers/CMSIS/Include/cmsis_gcc.h **** #ifndef   __STATIC_INLINE
  47:Drivers/CMSIS/Include/cmsis_gcc.h ****   #define __STATIC_INLINE                        static inline
  48:Drivers/CMSIS/Include/cmsis_gcc.h **** #endif
  49:Drivers/CMSIS/Include/cmsis_gcc.h **** #ifndef   __STATIC_FORCEINLINE                 
  50:Drivers/CMSIS/Include/cmsis_gcc.h ****   #define __STATIC_FORCEINLINE                   __attribute__((always_inline)) static inline
  51:Drivers/CMSIS/Include/cmsis_gcc.h **** #endif                                           
  52:Drivers/CMSIS/Include/cmsis_gcc.h **** #ifndef   __NO_RETURN
  53:Drivers/CMSIS/Include/cmsis_gcc.h ****   #define __NO_RETURN                            __attribute__((__noreturn__))
  54:Drivers/CMSIS/Include/cmsis_gcc.h **** #endif
  55:Drivers/CMSIS/Include/cmsis_gcc.h **** #ifndef   __USED
  56:Drivers/CMSIS/Include/cmsis_gcc.h ****   #define __USED                                 __attribute__((used))
  57:Drivers/CMSIS/Include/cmsis_gcc.h **** #endif
  58:Drivers/CMSIS/Include/cmsis_gcc.h **** #ifndef   __WEAK
  59:Drivers/CMSIS/Include/cmsis_gcc.h ****   #define __WEAK                                 __attribute__((weak))
  60:Drivers/CMSIS/Include/cmsis_gcc.h **** #endif
  61:Drivers/CMSIS/Include/cmsis_gcc.h **** #ifndef   __PACKED
  62:Drivers/CMSIS/Include/cmsis_gcc.h ****   #define __PACKED                               __attribute__((packed, aligned(1)))
  63:Drivers/CMSIS/Include/cmsis_gcc.h **** #endif
  64:Drivers/CMSIS/Include/cmsis_gcc.h **** #ifndef   __PACKED_STRUCT
  65:Drivers/CMSIS/Include/cmsis_gcc.h ****   #define __PACKED_STRUCT                        struct __attribute__((packed, aligned(1)))
  66:Drivers/CMSIS/Include/cmsis_gcc.h **** #endif
  67:Drivers/CMSIS/Include/cmsis_gcc.h **** #ifndef   __PACKED_UNION
  68:Drivers/CMSIS/Include/cmsis_gcc.h ****   #define __PACKED_UNION                         union __attribute__((packed, aligned(1)))
  69:Drivers/CMSIS/Include/cmsis_gcc.h **** #endif
  70:Drivers/CMSIS/Include/cmsis_gcc.h **** #ifndef   __UNALIGNED_UINT32        /* deprecated */
  71:Drivers/CMSIS/Include/cmsis_gcc.h ****   #pragma GCC diagnostic push
  72:Drivers/CMSIS/Include/cmsis_gcc.h ****   #pragma GCC diagnostic ignored "-Wpacked"
  73:Drivers/CMSIS/Include/cmsis_gcc.h ****   #pragma GCC diagnostic ignored "-Wattributes"
  74:Drivers/CMSIS/Include/cmsis_gcc.h ****   struct __attribute__((packed)) T_UINT32 { uint32_t v; };
  75:Drivers/CMSIS/Include/cmsis_gcc.h ****   #pragma GCC diagnostic pop
  76:Drivers/CMSIS/Include/cmsis_gcc.h ****   #define __UNALIGNED_UINT32(x)                  (((struct T_UINT32 *)(x))->v)
  77:Drivers/CMSIS/Include/cmsis_gcc.h **** #endif
  78:Drivers/CMSIS/Include/cmsis_gcc.h **** #ifndef   __UNALIGNED_UINT16_WRITE
  79:Drivers/CMSIS/Include/cmsis_gcc.h ****   #pragma GCC diagnostic push
  80:Drivers/CMSIS/Include/cmsis_gcc.h ****   #pragma GCC diagnostic ignored "-Wpacked"
  81:Drivers/CMSIS/Include/cmsis_gcc.h ****   #pragma GCC diagnostic ignored "-Wattributes"
  82:Drivers/CMSIS/Include/cmsis_gcc.h ****   __PACKED_STRUCT T_UINT16_WRITE { uint16_t v; };
  83:Drivers/CMSIS/Include/cmsis_gcc.h ****   #pragma GCC diagnostic pop
  84:Drivers/CMSIS/Include/cmsis_gcc.h ****   #define __UNALIGNED_UINT16_WRITE(addr, val)    (void)((((struct T_UINT16_WRITE *)(void *)(addr))-
ARM GAS  /tmp/ccPctUpA.s 			page 32


  85:Drivers/CMSIS/Include/cmsis_gcc.h **** #endif
  86:Drivers/CMSIS/Include/cmsis_gcc.h **** #ifndef   __UNALIGNED_UINT16_READ
  87:Drivers/CMSIS/Include/cmsis_gcc.h ****   #pragma GCC diagnostic push
  88:Drivers/CMSIS/Include/cmsis_gcc.h ****   #pragma GCC diagnostic ignored "-Wpacked"
  89:Drivers/CMSIS/Include/cmsis_gcc.h ****   #pragma GCC diagnostic ignored "-Wattributes"
  90:Drivers/CMSIS/Include/cmsis_gcc.h ****   __PACKED_STRUCT T_UINT16_READ { uint16_t v; };
  91:Drivers/CMSIS/Include/cmsis_gcc.h ****   #pragma GCC diagnostic pop
  92:Drivers/CMSIS/Include/cmsis_gcc.h ****   #define __UNALIGNED_UINT16_READ(addr)          (((const struct T_UINT16_READ *)(const void *)(add
  93:Drivers/CMSIS/Include/cmsis_gcc.h **** #endif
  94:Drivers/CMSIS/Include/cmsis_gcc.h **** #ifndef   __UNALIGNED_UINT32_WRITE
  95:Drivers/CMSIS/Include/cmsis_gcc.h ****   #pragma GCC diagnostic push
  96:Drivers/CMSIS/Include/cmsis_gcc.h ****   #pragma GCC diagnostic ignored "-Wpacked"
  97:Drivers/CMSIS/Include/cmsis_gcc.h ****   #pragma GCC diagnostic ignored "-Wattributes"
  98:Drivers/CMSIS/Include/cmsis_gcc.h ****   __PACKED_STRUCT T_UINT32_WRITE { uint32_t v; };
  99:Drivers/CMSIS/Include/cmsis_gcc.h ****   #pragma GCC diagnostic pop
 100:Drivers/CMSIS/Include/cmsis_gcc.h ****   #define __UNALIGNED_UINT32_WRITE(addr, val)    (void)((((struct T_UINT32_WRITE *)(void *)(addr))-
 101:Drivers/CMSIS/Include/cmsis_gcc.h **** #endif
 102:Drivers/CMSIS/Include/cmsis_gcc.h **** #ifndef   __UNALIGNED_UINT32_READ
 103:Drivers/CMSIS/Include/cmsis_gcc.h ****   #pragma GCC diagnostic push
 104:Drivers/CMSIS/Include/cmsis_gcc.h ****   #pragma GCC diagnostic ignored "-Wpacked"
 105:Drivers/CMSIS/Include/cmsis_gcc.h ****   #pragma GCC diagnostic ignored "-Wattributes"
 106:Drivers/CMSIS/Include/cmsis_gcc.h ****   __PACKED_STRUCT T_UINT32_READ { uint32_t v; };
 107:Drivers/CMSIS/Include/cmsis_gcc.h ****   #pragma GCC diagnostic pop
 108:Drivers/CMSIS/Include/cmsis_gcc.h ****   #define __UNALIGNED_UINT32_READ(addr)          (((const struct T_UINT32_READ *)(const void *)(add
 109:Drivers/CMSIS/Include/cmsis_gcc.h **** #endif
 110:Drivers/CMSIS/Include/cmsis_gcc.h **** #ifndef   __ALIGNED
 111:Drivers/CMSIS/Include/cmsis_gcc.h ****   #define __ALIGNED(x)                           __attribute__((aligned(x)))
 112:Drivers/CMSIS/Include/cmsis_gcc.h **** #endif
 113:Drivers/CMSIS/Include/cmsis_gcc.h **** #ifndef   __RESTRICT
 114:Drivers/CMSIS/Include/cmsis_gcc.h ****   #define __RESTRICT                             __restrict
 115:Drivers/CMSIS/Include/cmsis_gcc.h **** #endif
 116:Drivers/CMSIS/Include/cmsis_gcc.h **** #ifndef   __COMPILER_BARRIER
 117:Drivers/CMSIS/Include/cmsis_gcc.h ****   #define __COMPILER_BARRIER()                   __ASM volatile("":::"memory")
 118:Drivers/CMSIS/Include/cmsis_gcc.h **** #endif
 119:Drivers/CMSIS/Include/cmsis_gcc.h **** 
 120:Drivers/CMSIS/Include/cmsis_gcc.h **** /* #########################  Startup and Lowlevel Init  ######################## */
 121:Drivers/CMSIS/Include/cmsis_gcc.h **** 
 122:Drivers/CMSIS/Include/cmsis_gcc.h **** #ifndef __PROGRAM_START
 123:Drivers/CMSIS/Include/cmsis_gcc.h **** 
 124:Drivers/CMSIS/Include/cmsis_gcc.h **** /**
 125:Drivers/CMSIS/Include/cmsis_gcc.h ****   \brief   Initializes data and bss sections
 126:Drivers/CMSIS/Include/cmsis_gcc.h ****   \details This default implementations initialized all data and additional bss
 127:Drivers/CMSIS/Include/cmsis_gcc.h ****            sections relying on .copy.table and .zero.table specified properly
 128:Drivers/CMSIS/Include/cmsis_gcc.h ****            in the used linker script.
 129:Drivers/CMSIS/Include/cmsis_gcc.h ****   
 130:Drivers/CMSIS/Include/cmsis_gcc.h ****  */
 131:Drivers/CMSIS/Include/cmsis_gcc.h **** __STATIC_FORCEINLINE __NO_RETURN void __cmsis_start(void)
 132:Drivers/CMSIS/Include/cmsis_gcc.h **** {
 133:Drivers/CMSIS/Include/cmsis_gcc.h ****   extern void _start(void) __NO_RETURN;
 134:Drivers/CMSIS/Include/cmsis_gcc.h ****   
 135:Drivers/CMSIS/Include/cmsis_gcc.h ****   typedef struct {
 136:Drivers/CMSIS/Include/cmsis_gcc.h ****     uint32_t const* src;
 137:Drivers/CMSIS/Include/cmsis_gcc.h ****     uint32_t* dest;
 138:Drivers/CMSIS/Include/cmsis_gcc.h ****     uint32_t  wlen;
 139:Drivers/CMSIS/Include/cmsis_gcc.h ****   } __copy_table_t;
 140:Drivers/CMSIS/Include/cmsis_gcc.h ****   
 141:Drivers/CMSIS/Include/cmsis_gcc.h ****   typedef struct {
ARM GAS  /tmp/ccPctUpA.s 			page 33


 142:Drivers/CMSIS/Include/cmsis_gcc.h ****     uint32_t* dest;
 143:Drivers/CMSIS/Include/cmsis_gcc.h ****     uint32_t  wlen;
 144:Drivers/CMSIS/Include/cmsis_gcc.h ****   } __zero_table_t;
 145:Drivers/CMSIS/Include/cmsis_gcc.h ****   
 146:Drivers/CMSIS/Include/cmsis_gcc.h ****   extern const __copy_table_t __copy_table_start__;
 147:Drivers/CMSIS/Include/cmsis_gcc.h ****   extern const __copy_table_t __copy_table_end__;
 148:Drivers/CMSIS/Include/cmsis_gcc.h ****   extern const __zero_table_t __zero_table_start__;
 149:Drivers/CMSIS/Include/cmsis_gcc.h ****   extern const __zero_table_t __zero_table_end__;
 150:Drivers/CMSIS/Include/cmsis_gcc.h **** 
 151:Drivers/CMSIS/Include/cmsis_gcc.h ****   for (__copy_table_t const* pTable = &__copy_table_start__; pTable < &__copy_table_end__; ++pTable
 152:Drivers/CMSIS/Include/cmsis_gcc.h ****     for(uint32_t i=0u; i<pTable->wlen; ++i) {
 153:Drivers/CMSIS/Include/cmsis_gcc.h ****       pTable->dest[i] = pTable->src[i];
 154:Drivers/CMSIS/Include/cmsis_gcc.h ****     }
 155:Drivers/CMSIS/Include/cmsis_gcc.h ****   }
 156:Drivers/CMSIS/Include/cmsis_gcc.h ****  
 157:Drivers/CMSIS/Include/cmsis_gcc.h ****   for (__zero_table_t const* pTable = &__zero_table_start__; pTable < &__zero_table_end__; ++pTable
 158:Drivers/CMSIS/Include/cmsis_gcc.h ****     for(uint32_t i=0u; i<pTable->wlen; ++i) {
 159:Drivers/CMSIS/Include/cmsis_gcc.h ****       pTable->dest[i] = 0u;
 160:Drivers/CMSIS/Include/cmsis_gcc.h ****     }
 161:Drivers/CMSIS/Include/cmsis_gcc.h ****   }
 162:Drivers/CMSIS/Include/cmsis_gcc.h ****  
 163:Drivers/CMSIS/Include/cmsis_gcc.h ****   _start();
 164:Drivers/CMSIS/Include/cmsis_gcc.h **** }
 165:Drivers/CMSIS/Include/cmsis_gcc.h ****   
 166:Drivers/CMSIS/Include/cmsis_gcc.h **** #define __PROGRAM_START           __cmsis_start
 167:Drivers/CMSIS/Include/cmsis_gcc.h **** #endif
 168:Drivers/CMSIS/Include/cmsis_gcc.h **** 
 169:Drivers/CMSIS/Include/cmsis_gcc.h **** #ifndef __INITIAL_SP
 170:Drivers/CMSIS/Include/cmsis_gcc.h **** #define __INITIAL_SP              __StackTop
 171:Drivers/CMSIS/Include/cmsis_gcc.h **** #endif
 172:Drivers/CMSIS/Include/cmsis_gcc.h **** 
 173:Drivers/CMSIS/Include/cmsis_gcc.h **** #ifndef __STACK_LIMIT
 174:Drivers/CMSIS/Include/cmsis_gcc.h **** #define __STACK_LIMIT             __StackLimit
 175:Drivers/CMSIS/Include/cmsis_gcc.h **** #endif
 176:Drivers/CMSIS/Include/cmsis_gcc.h **** 
 177:Drivers/CMSIS/Include/cmsis_gcc.h **** #ifndef __VECTOR_TABLE
 178:Drivers/CMSIS/Include/cmsis_gcc.h **** #define __VECTOR_TABLE            __Vectors
 179:Drivers/CMSIS/Include/cmsis_gcc.h **** #endif
 180:Drivers/CMSIS/Include/cmsis_gcc.h **** 
 181:Drivers/CMSIS/Include/cmsis_gcc.h **** #ifndef __VECTOR_TABLE_ATTRIBUTE
 182:Drivers/CMSIS/Include/cmsis_gcc.h **** #define __VECTOR_TABLE_ATTRIBUTE  __attribute((used, section(".vectors")))
 183:Drivers/CMSIS/Include/cmsis_gcc.h **** #endif
 184:Drivers/CMSIS/Include/cmsis_gcc.h **** 
 185:Drivers/CMSIS/Include/cmsis_gcc.h **** /* ###########################  Core Function Access  ########################### */
 186:Drivers/CMSIS/Include/cmsis_gcc.h **** /** \ingroup  CMSIS_Core_FunctionInterface
 187:Drivers/CMSIS/Include/cmsis_gcc.h ****     \defgroup CMSIS_Core_RegAccFunctions CMSIS Core Register Access Functions
 188:Drivers/CMSIS/Include/cmsis_gcc.h ****   @{
 189:Drivers/CMSIS/Include/cmsis_gcc.h ****  */
 190:Drivers/CMSIS/Include/cmsis_gcc.h **** 
 191:Drivers/CMSIS/Include/cmsis_gcc.h **** /**
 192:Drivers/CMSIS/Include/cmsis_gcc.h ****   \brief   Enable IRQ Interrupts
 193:Drivers/CMSIS/Include/cmsis_gcc.h ****   \details Enables IRQ interrupts by clearing the I-bit in the CPSR.
 194:Drivers/CMSIS/Include/cmsis_gcc.h ****            Can only be executed in Privileged modes.
 195:Drivers/CMSIS/Include/cmsis_gcc.h ****  */
 196:Drivers/CMSIS/Include/cmsis_gcc.h **** __STATIC_FORCEINLINE void __enable_irq(void)
 197:Drivers/CMSIS/Include/cmsis_gcc.h **** {
 198:Drivers/CMSIS/Include/cmsis_gcc.h ****   __ASM volatile ("cpsie i" : : : "memory");
ARM GAS  /tmp/ccPctUpA.s 			page 34


 199:Drivers/CMSIS/Include/cmsis_gcc.h **** }
 200:Drivers/CMSIS/Include/cmsis_gcc.h **** 
 201:Drivers/CMSIS/Include/cmsis_gcc.h **** 
 202:Drivers/CMSIS/Include/cmsis_gcc.h **** /**
 203:Drivers/CMSIS/Include/cmsis_gcc.h ****   \brief   Disable IRQ Interrupts
 204:Drivers/CMSIS/Include/cmsis_gcc.h ****   \details Disables IRQ interrupts by setting the I-bit in the CPSR.
 205:Drivers/CMSIS/Include/cmsis_gcc.h ****            Can only be executed in Privileged modes.
 206:Drivers/CMSIS/Include/cmsis_gcc.h ****  */
 207:Drivers/CMSIS/Include/cmsis_gcc.h **** __STATIC_FORCEINLINE void __disable_irq(void)
 1179              		.loc 2 207 27 view .LVU258
 1180              	.LBB17:
 208:Drivers/CMSIS/Include/cmsis_gcc.h **** {
 209:Drivers/CMSIS/Include/cmsis_gcc.h ****   __ASM volatile ("cpsid i" : : : "memory");
 1181              		.loc 2 209 3 view .LVU259
 1182              		.syntax unified
 1183              	@ 209 "Drivers/CMSIS/Include/cmsis_gcc.h" 1
 1184 0000 72B6     		cpsid i
 1185              	@ 0 "" 2
 1186              		.thumb
 1187              		.syntax unified
 1188              	.L90:
 1189              	.LBE17:
 1190              	.LBE16:
 457:Core/Src/main.c ****   while (1)
 1191              		.loc 1 457 3 discriminator 1 view .LVU260
 458:Core/Src/main.c ****   {
 459:Core/Src/main.c ****   }
 1192              		.loc 1 459 3 discriminator 1 view .LVU261
 457:Core/Src/main.c ****   while (1)
 1193              		.loc 1 457 9 discriminator 1 view .LVU262
 1194 0002 FEE7     		b	.L90
 1195              		.cfi_endproc
 1196              	.LFE1457:
 1198              		.section	.text.SystemClock_Config,"ax",%progbits
 1199              		.align	1
 1200              		.global	SystemClock_Config
 1201              		.syntax unified
 1202              		.thumb
 1203              		.thumb_func
 1205              	SystemClock_Config:
 1206              	.LFB1456:
 403:Core/Src/main.c ****   RCC_OscInitTypeDef RCC_OscInitStruct = {0};
 1207              		.loc 1 403 1 view -0
 1208              		.cfi_startproc
 1209              		@ args = 0, pretend = 0, frame = 80
 1210              		@ frame_needed = 0, uses_anonymous_args = 0
 1211 0000 00B5     		push	{lr}
 1212              	.LCFI23:
 1213              		.cfi_def_cfa_offset 4
 1214              		.cfi_offset 14, -4
 1215 0002 95B0     		sub	sp, sp, #84
 1216              	.LCFI24:
 1217              		.cfi_def_cfa_offset 88
 404:Core/Src/main.c ****   RCC_ClkInitTypeDef RCC_ClkInitStruct = {0};
 1218              		.loc 1 404 3 view .LVU264
 404:Core/Src/main.c ****   RCC_ClkInitTypeDef RCC_ClkInitStruct = {0};
 1219              		.loc 1 404 22 is_stmt 0 view .LVU265
ARM GAS  /tmp/ccPctUpA.s 			page 35


 1220 0004 3822     		movs	r2, #56
 1221 0006 0021     		movs	r1, #0
 1222 0008 06A8     		add	r0, sp, #24
 1223 000a FFF7FEFF 		bl	memset
 1224              	.LVL86:
 405:Core/Src/main.c **** 
 1225              		.loc 1 405 3 is_stmt 1 view .LVU266
 405:Core/Src/main.c **** 
 1226              		.loc 1 405 22 is_stmt 0 view .LVU267
 1227 000e 0020     		movs	r0, #0
 1228 0010 0190     		str	r0, [sp, #4]
 1229 0012 0290     		str	r0, [sp, #8]
 1230 0014 0390     		str	r0, [sp, #12]
 1231 0016 0490     		str	r0, [sp, #16]
 1232 0018 0590     		str	r0, [sp, #20]
 409:Core/Src/main.c **** 
 1233              		.loc 1 409 3 is_stmt 1 view .LVU268
 1234 001a FFF7FEFF 		bl	HAL_PWREx_ControlVoltageScaling
 1235              	.LVL87:
 414:Core/Src/main.c ****   RCC_OscInitStruct.HSEState = RCC_HSE_BYPASS;
 1236              		.loc 1 414 3 view .LVU269
 414:Core/Src/main.c ****   RCC_OscInitStruct.HSEState = RCC_HSE_BYPASS;
 1237              		.loc 1 414 36 is_stmt 0 view .LVU270
 1238 001e 2123     		movs	r3, #33
 1239 0020 0693     		str	r3, [sp, #24]
 415:Core/Src/main.c ****   RCC_OscInitStruct.HSI48State = RCC_HSI48_ON;
 1240              		.loc 1 415 3 is_stmt 1 view .LVU271
 415:Core/Src/main.c ****   RCC_OscInitStruct.HSI48State = RCC_HSI48_ON;
 1241              		.loc 1 415 30 is_stmt 0 view .LVU272
 1242 0022 4FF4A023 		mov	r3, #327680
 1243 0026 0793     		str	r3, [sp, #28]
 416:Core/Src/main.c ****   RCC_OscInitStruct.PLL.PLLState = RCC_PLL_ON;
 1244              		.loc 1 416 3 is_stmt 1 view .LVU273
 416:Core/Src/main.c ****   RCC_OscInitStruct.PLL.PLLState = RCC_PLL_ON;
 1245              		.loc 1 416 32 is_stmt 0 view .LVU274
 1246 0028 0123     		movs	r3, #1
 1247 002a 0C93     		str	r3, [sp, #48]
 417:Core/Src/main.c ****   RCC_OscInitStruct.PLL.PLLSource = RCC_PLLSOURCE_HSE;
 1248              		.loc 1 417 3 is_stmt 1 view .LVU275
 417:Core/Src/main.c ****   RCC_OscInitStruct.PLL.PLLSource = RCC_PLLSOURCE_HSE;
 1249              		.loc 1 417 34 is_stmt 0 view .LVU276
 1250 002c 0223     		movs	r3, #2
 1251 002e 0D93     		str	r3, [sp, #52]
 418:Core/Src/main.c ****   RCC_OscInitStruct.PLL.PLLM = RCC_PLLM_DIV2;
 1252              		.loc 1 418 3 is_stmt 1 view .LVU277
 418:Core/Src/main.c ****   RCC_OscInitStruct.PLL.PLLM = RCC_PLLM_DIV2;
 1253              		.loc 1 418 35 is_stmt 0 view .LVU278
 1254 0030 0322     		movs	r2, #3
 1255 0032 0E92     		str	r2, [sp, #56]
 419:Core/Src/main.c ****   RCC_OscInitStruct.PLL.PLLN = 85;
 1256              		.loc 1 419 3 is_stmt 1 view .LVU279
 419:Core/Src/main.c ****   RCC_OscInitStruct.PLL.PLLN = 85;
 1257              		.loc 1 419 30 is_stmt 0 view .LVU280
 1258 0034 0F93     		str	r3, [sp, #60]
 420:Core/Src/main.c ****   RCC_OscInitStruct.PLL.PLLP = RCC_PLLP_DIV2;
 1259              		.loc 1 420 3 is_stmt 1 view .LVU281
 420:Core/Src/main.c ****   RCC_OscInitStruct.PLL.PLLP = RCC_PLLP_DIV2;
ARM GAS  /tmp/ccPctUpA.s 			page 36


 1260              		.loc 1 420 30 is_stmt 0 view .LVU282
 1261 0036 5522     		movs	r2, #85
 1262 0038 1092     		str	r2, [sp, #64]
 421:Core/Src/main.c ****   RCC_OscInitStruct.PLL.PLLQ = RCC_PLLQ_DIV6;
 1263              		.loc 1 421 3 is_stmt 1 view .LVU283
 421:Core/Src/main.c ****   RCC_OscInitStruct.PLL.PLLQ = RCC_PLLQ_DIV6;
 1264              		.loc 1 421 30 is_stmt 0 view .LVU284
 1265 003a 1193     		str	r3, [sp, #68]
 422:Core/Src/main.c ****   RCC_OscInitStruct.PLL.PLLR = RCC_PLLR_DIV2;
 1266              		.loc 1 422 3 is_stmt 1 view .LVU285
 422:Core/Src/main.c ****   RCC_OscInitStruct.PLL.PLLR = RCC_PLLR_DIV2;
 1267              		.loc 1 422 30 is_stmt 0 view .LVU286
 1268 003c 0622     		movs	r2, #6
 1269 003e 1292     		str	r2, [sp, #72]
 423:Core/Src/main.c ****   if (HAL_RCC_OscConfig(&RCC_OscInitStruct) != HAL_OK)
 1270              		.loc 1 423 3 is_stmt 1 view .LVU287
 423:Core/Src/main.c ****   if (HAL_RCC_OscConfig(&RCC_OscInitStruct) != HAL_OK)
 1271              		.loc 1 423 30 is_stmt 0 view .LVU288
 1272 0040 1393     		str	r3, [sp, #76]
 424:Core/Src/main.c ****   {
 1273              		.loc 1 424 3 is_stmt 1 view .LVU289
 424:Core/Src/main.c ****   {
 1274              		.loc 1 424 7 is_stmt 0 view .LVU290
 1275 0042 06A8     		add	r0, sp, #24
 1276 0044 FFF7FEFF 		bl	HAL_RCC_OscConfig
 1277              	.LVL88:
 424:Core/Src/main.c ****   {
 1278              		.loc 1 424 6 view .LVU291
 1279 0048 80B9     		cbnz	r0, .L95
 431:Core/Src/main.c ****                               |RCC_CLOCKTYPE_PCLK1|RCC_CLOCKTYPE_PCLK2;
 1280              		.loc 1 431 3 is_stmt 1 view .LVU292
 431:Core/Src/main.c ****                               |RCC_CLOCKTYPE_PCLK1|RCC_CLOCKTYPE_PCLK2;
 1281              		.loc 1 431 31 is_stmt 0 view .LVU293
 1282 004a 0F23     		movs	r3, #15
 1283 004c 0193     		str	r3, [sp, #4]
 433:Core/Src/main.c ****   RCC_ClkInitStruct.AHBCLKDivider = RCC_SYSCLK_DIV1;
 1284              		.loc 1 433 3 is_stmt 1 view .LVU294
 433:Core/Src/main.c ****   RCC_ClkInitStruct.AHBCLKDivider = RCC_SYSCLK_DIV1;
 1285              		.loc 1 433 34 is_stmt 0 view .LVU295
 1286 004e 0323     		movs	r3, #3
 1287 0050 0293     		str	r3, [sp, #8]
 434:Core/Src/main.c ****   RCC_ClkInitStruct.APB1CLKDivider = RCC_HCLK_DIV1;
 1288              		.loc 1 434 3 is_stmt 1 view .LVU296
 434:Core/Src/main.c ****   RCC_ClkInitStruct.APB1CLKDivider = RCC_HCLK_DIV1;
 1289              		.loc 1 434 35 is_stmt 0 view .LVU297
 1290 0052 0023     		movs	r3, #0
 1291 0054 0393     		str	r3, [sp, #12]
 435:Core/Src/main.c ****   RCC_ClkInitStruct.APB2CLKDivider = RCC_HCLK_DIV1;
 1292              		.loc 1 435 3 is_stmt 1 view .LVU298
 435:Core/Src/main.c ****   RCC_ClkInitStruct.APB2CLKDivider = RCC_HCLK_DIV1;
 1293              		.loc 1 435 36 is_stmt 0 view .LVU299
 1294 0056 0493     		str	r3, [sp, #16]
 436:Core/Src/main.c **** 
 1295              		.loc 1 436 3 is_stmt 1 view .LVU300
 436:Core/Src/main.c **** 
 1296              		.loc 1 436 36 is_stmt 0 view .LVU301
 1297 0058 0593     		str	r3, [sp, #20]
ARM GAS  /tmp/ccPctUpA.s 			page 37


 438:Core/Src/main.c ****   {
 1298              		.loc 1 438 3 is_stmt 1 view .LVU302
 438:Core/Src/main.c ****   {
 1299              		.loc 1 438 7 is_stmt 0 view .LVU303
 1300 005a 0421     		movs	r1, #4
 1301 005c 0DEB0100 		add	r0, sp, r1
 1302 0060 FFF7FEFF 		bl	HAL_RCC_ClockConfig
 1303              	.LVL89:
 438:Core/Src/main.c ****   {
 1304              		.loc 1 438 6 view .LVU304
 1305 0064 20B9     		cbnz	r0, .L96
 442:Core/Src/main.c **** 
 1306              		.loc 1 442 1 view .LVU305
 1307 0066 15B0     		add	sp, sp, #84
 1308              	.LCFI25:
 1309              		.cfi_remember_state
 1310              		.cfi_def_cfa_offset 4
 1311              		@ sp needed
 1312 0068 5DF804FB 		ldr	pc, [sp], #4
 1313              	.L95:
 1314              	.LCFI26:
 1315              		.cfi_restore_state
 426:Core/Src/main.c ****   }
 1316              		.loc 1 426 5 is_stmt 1 view .LVU306
 1317 006c FFF7FEFF 		bl	Error_Handler
 1318              	.LVL90:
 1319              	.L96:
 440:Core/Src/main.c ****   }
 1320              		.loc 1 440 5 view .LVU307
 1321 0070 FFF7FEFF 		bl	Error_Handler
 1322              	.LVL91:
 1323              		.cfi_endproc
 1324              	.LFE1456:
 1326              		.section	.text.main,"ax",%progbits
 1327              		.align	1
 1328              		.global	main
 1329              		.syntax unified
 1330              		.thumb
 1331              		.thumb_func
 1333              	main:
 1334              	.LFB1455:
 303:Core/Src/main.c ****   /* USER CODE BEGIN 1 */
 1335              		.loc 1 303 1 view -0
 1336              		.cfi_startproc
 1337              		@ args = 0, pretend = 0, frame = 0
 1338              		@ frame_needed = 0, uses_anonymous_args = 0
 1339 0000 10B5     		push	{r4, lr}
 1340              	.LCFI27:
 1341              		.cfi_def_cfa_offset 8
 1342              		.cfi_offset 4, -8
 1343              		.cfi_offset 14, -4
 305:Core/Src/main.c **** 	Tetromino t;
 1344              		.loc 1 305 2 view .LVU309
 306:Core/Src/main.c **** 	GameState currentState = START_SCREEN;
 1345              		.loc 1 306 2 view .LVU310
 307:Core/Src/main.c ****   /* USER CODE END 1 */
 1346              		.loc 1 307 2 view .LVU311
ARM GAS  /tmp/ccPctUpA.s 			page 38


 1347              	.LVL92:
 313:Core/Src/main.c **** 
 1348              		.loc 1 313 3 view .LVU312
 1349 0002 FFF7FEFF 		bl	HAL_Init
 1350              	.LVL93:
 320:Core/Src/main.c **** 
 1351              		.loc 1 320 3 view .LVU313
 1352 0006 FFF7FEFF 		bl	SystemClock_Config
 1353              	.LVL94:
 327:Core/Src/main.c ****   MX_DMA_Init();
 1354              		.loc 1 327 3 view .LVU314
 1355 000a FFF7FEFF 		bl	MX_GPIO_Init
 1356              	.LVL95:
 328:Core/Src/main.c ****   MX_ADC2_Init();
 1357              		.loc 1 328 3 view .LVU315
 1358 000e FFF7FEFF 		bl	MX_DMA_Init
 1359              	.LVL96:
 329:Core/Src/main.c ****   MX_FMC_Init();
 1360              		.loc 1 329 3 view .LVU316
 1361 0012 FFF7FEFF 		bl	MX_ADC2_Init
 1362              	.LVL97:
 330:Core/Src/main.c ****   MX_I2C2_Init();
 1363              		.loc 1 330 3 view .LVU317
 1364 0016 FFF7FEFF 		bl	MX_FMC_Init
 1365              	.LVL98:
 331:Core/Src/main.c ****   MX_UART4_Init();
 1366              		.loc 1 331 3 view .LVU318
 1367 001a FFF7FEFF 		bl	MX_I2C2_Init
 1368              	.LVL99:
 332:Core/Src/main.c ****   MX_UART5_Init();
 1369              		.loc 1 332 3 view .LVU319
 1370 001e FFF7FEFF 		bl	MX_UART4_Init
 1371              	.LVL100:
 333:Core/Src/main.c ****   MX_USART1_UART_Init();
 1372              		.loc 1 333 3 view .LVU320
 1373 0022 FFF7FEFF 		bl	MX_UART5_Init
 1374              	.LVL101:
 334:Core/Src/main.c ****   MX_USART2_UART_Init();
 1375              		.loc 1 334 3 view .LVU321
 1376 0026 FFF7FEFF 		bl	MX_USART1_UART_Init
 1377              	.LVL102:
 335:Core/Src/main.c ****   MX_QUADSPI1_Init();
 1378              		.loc 1 335 3 view .LVU322
 1379 002a FFF7FEFF 		bl	MX_USART2_UART_Init
 1380              	.LVL103:
 336:Core/Src/main.c ****   MX_SPI1_Init();
 1381              		.loc 1 336 3 view .LVU323
 1382 002e FFF7FEFF 		bl	MX_QUADSPI1_Init
 1383              	.LVL104:
 337:Core/Src/main.c ****   MX_TIM5_Init();
 1384              		.loc 1 337 3 view .LVU324
 1385 0032 FFF7FEFF 		bl	MX_SPI1_Init
 1386              	.LVL105:
 338:Core/Src/main.c ****   MX_TIM8_Init();
 1387              		.loc 1 338 3 view .LVU325
 1388 0036 FFF7FEFF 		bl	MX_TIM5_Init
 1389              	.LVL106:
ARM GAS  /tmp/ccPctUpA.s 			page 39


 339:Core/Src/main.c ****   MX_TIM20_Init();
 1390              		.loc 1 339 3 view .LVU326
 1391 003a FFF7FEFF 		bl	MX_TIM8_Init
 1392              	.LVL107:
 340:Core/Src/main.c ****   MX_ADC3_Init();
 1393              		.loc 1 340 3 view .LVU327
 1394 003e FFF7FEFF 		bl	MX_TIM20_Init
 1395              	.LVL108:
 341:Core/Src/main.c ****   MX_DAC1_Init();
 1396              		.loc 1 341 3 view .LVU328
 1397 0042 FFF7FEFF 		bl	MX_ADC3_Init
 1398              	.LVL109:
 342:Core/Src/main.c ****   MX_DAC2_Init();
 1399              		.loc 1 342 3 view .LVU329
 1400 0046 FFF7FEFF 		bl	MX_DAC1_Init
 1401              	.LVL110:
 343:Core/Src/main.c ****   MX_FDCAN2_Init();
 1402              		.loc 1 343 3 view .LVU330
 1403 004a FFF7FEFF 		bl	MX_DAC2_Init
 1404              	.LVL111:
 344:Core/Src/main.c ****   MX_I2C1_Init();
 1405              		.loc 1 344 3 view .LVU331
 1406 004e FFF7FEFF 		bl	MX_FDCAN2_Init
 1407              	.LVL112:
 345:Core/Src/main.c ****   MX_TIM15_Init();
 1408              		.loc 1 345 3 view .LVU332
 1409 0052 FFF7FEFF 		bl	MX_I2C1_Init
 1410              	.LVL113:
 346:Core/Src/main.c ****   MX_USART3_UART_Init();
 1411              		.loc 1 346 3 view .LVU333
 1412 0056 FFF7FEFF 		bl	MX_TIM15_Init
 1413              	.LVL114:
 347:Core/Src/main.c ****   MX_ADC4_Init();
 1414              		.loc 1 347 3 view .LVU334
 1415 005a FFF7FEFF 		bl	MX_USART3_UART_Init
 1416              	.LVL115:
 348:Core/Src/main.c ****   MX_USB_Device_Init();
 1417              		.loc 1 348 3 view .LVU335
 1418 005e FFF7FEFF 		bl	MX_ADC4_Init
 1419              	.LVL116:
 349:Core/Src/main.c ****   MX_ADC1_Init();
 1420              		.loc 1 349 3 view .LVU336
 1421 0062 FFF7FEFF 		bl	MX_USB_Device_Init
 1422              	.LVL117:
 350:Core/Src/main.c ****   MX_CRC_Init();
 1423              		.loc 1 350 3 view .LVU337
 1424 0066 FFF7FEFF 		bl	MX_ADC1_Init
 1425              	.LVL118:
 351:Core/Src/main.c ****   MX_TIM6_Init();
 1426              		.loc 1 351 3 view .LVU338
 1427 006a FFF7FEFF 		bl	MX_CRC_Init
 1428              	.LVL119:
 352:Core/Src/main.c ****   /* USER CODE BEGIN 2 */
 1429              		.loc 1 352 3 view .LVU339
 1430 006e FFF7FEFF 		bl	MX_TIM6_Init
 1431              	.LVL120:
 355:Core/Src/main.c ****   KBD_init();
ARM GAS  /tmp/ccPctUpA.s 			page 40


 1432              		.loc 1 355 3 view .LVU340
 1433 0072 FFF7FEFF 		bl	LED_init
 1434              	.LVL121:
 356:Core/Src/main.c ****   SCI_init();
 1435              		.loc 1 356 3 view .LVU341
 1436 0076 FFF7FEFF 		bl	KBD_init
 1437              	.LVL122:
 357:Core/Src/main.c ****   joystick_init(&joystick);
 1438              		.loc 1 357 3 view .LVU342
 1439 007a FFF7FEFF 		bl	SCI_init
 1440              	.LVL123:
 358:Core/Src/main.c **** 
 1441              		.loc 1 358 3 view .LVU343
 1442 007e 1248     		ldr	r0, .L100
 1443 0080 FFF7FEFF 		bl	joystick_init
 1444              	.LVL124:
 368:Core/Src/main.c ****   UG_Init(&gui, UserPixelSetFunction, ILI9341_GetParam(LCD_WIDTH), ILI9341_GetParam(LCD_HEIGHT));
 1445              		.loc 1 368 3 view .LVU344
 1446 0084 FFF7FEFF 		bl	LCD_Init
 1447              	.LVL125:
 369:Core/Src/main.c ****   UG_FontSelect(&FONT_8X12);
 1448              		.loc 1 369 3 view .LVU345
 369:Core/Src/main.c ****   UG_FontSelect(&FONT_8X12);
 1449              		.loc 1 369 39 is_stmt 0 view .LVU346
 1450 0088 0020     		movs	r0, #0
 1451 008a FFF7FEFF 		bl	ILI9341_GetParam
 1452              	.LVL126:
 1453 008e 0446     		mov	r4, r0
 369:Core/Src/main.c ****   UG_FontSelect(&FONT_8X12);
 1454              		.loc 1 369 68 view .LVU347
 1455 0090 0120     		movs	r0, #1
 1456 0092 FFF7FEFF 		bl	ILI9341_GetParam
 1457              	.LVL127:
 1458 0096 0346     		mov	r3, r0
 369:Core/Src/main.c ****   UG_FontSelect(&FONT_8X12);
 1459              		.loc 1 369 3 view .LVU348
 1460 0098 2246     		mov	r2, r4
 1461 009a 0C49     		ldr	r1, .L100+4
 1462 009c 0C48     		ldr	r0, .L100+8
 1463 009e FFF7FEFF 		bl	UG_Init
 1464              	.LVL128:
 370:Core/Src/main.c ****   UG_SetForecolor(C_WHITE);
 1465              		.loc 1 370 3 is_stmt 1 view .LVU349
 1466 00a2 0C48     		ldr	r0, .L100+12
 1467 00a4 FFF7FEFF 		bl	UG_FontSelect
 1468              	.LVL129:
 371:Core/Src/main.c ****   UG_SetBackcolor(C_BLACK);
 1469              		.loc 1 371 3 view .LVU350
 1470 00a8 4FF6FF70 		movw	r0, #65535
 1471 00ac FFF7FEFF 		bl	UG_SetForecolor
 1472              	.LVL130:
 372:Core/Src/main.c ****   UG_DriverRegister(DRIVER_FILL_FRAME, (void *)_HW_FillFrame_);
 1473              		.loc 1 372 3 view .LVU351
 1474 00b0 0020     		movs	r0, #0
 1475 00b2 FFF7FEFF 		bl	UG_SetBackcolor
 1476              	.LVL131:
 373:Core/Src/main.c ****   UG_DriverEnable(DRIVER_FILL_FRAME);
ARM GAS  /tmp/ccPctUpA.s 			page 41


 1477              		.loc 1 373 3 view .LVU352
 1478 00b6 0849     		ldr	r1, .L100+16
 1479 00b8 0120     		movs	r0, #1
 1480 00ba FFF7FEFF 		bl	UG_DriverRegister
 1481              	.LVL132:
 374:Core/Src/main.c **** 
 1482              		.loc 1 374 3 view .LVU353
 1483 00be 0120     		movs	r0, #1
 1484 00c0 FFF7FEFF 		bl	UG_DriverEnable
 1485              	.LVL133:
 1486              	.L98:
 389:Core/Src/main.c ****   {
 1487              		.loc 1 389 3 discriminator 1 view .LVU354
 394:Core/Src/main.c ****   /* USER CODE END 3 */
 1488              		.loc 1 394 3 discriminator 1 view .LVU355
 389:Core/Src/main.c ****   {
 1489              		.loc 1 389 9 discriminator 1 view .LVU356
 1490 00c4 FEE7     		b	.L98
 1491              	.L101:
 1492 00c6 00BF     		.align	2
 1493              	.L100:
 1494 00c8 00000000 		.word	.LANCHOR11
 1495 00cc 00000000 		.word	UserPixelSetFunction
 1496 00d0 00000000 		.word	.LANCHOR16
 1497 00d4 00000000 		.word	FONT_8X12
 1498 00d8 00000000 		.word	_HW_FillFrame_
 1499              		.cfi_endproc
 1500              	.LFE1455:
 1502              		.global	esc
 1503              		.global	ok
 1504              		.global	left
 1505              		.global	down
 1506              		.global	right
 1507              		.global	up
 1508              		.global	joystick
 1509              		.global	joystick_out
 1510              		.global	joystick_raw
 1511              		.global	fieldArray
 1512              		.global	seed
 1513              		.global	fullRow
 1514              		.global	rotations
 1515              		.global	score
 1516              		.global	p_x
 1517              		.global	p_y
 1518              		.global	gui
 1519              		.section	.bss.fieldArray,"aw",%nobits
 1520              		.align	2
 1521              		.set	.LANCHOR0,. + 0
 1524              	fieldArray:
 1525 0000 00000000 		.space	1700
 1525      00000000 
 1525      00000000 
 1525      00000000 
 1525      00000000 
 1526              		.section	.bss.fullRow,"aw",%nobits
 1527              		.align	2
 1528              		.set	.LANCHOR1,. + 0
ARM GAS  /tmp/ccPctUpA.s 			page 42


 1531              	fullRow:
 1532 0000 00000000 		.space	96
 1532      00000000 
 1532      00000000 
 1532      00000000 
 1532      00000000 
 1533              		.section	.bss.gui,"aw",%nobits
 1534              		.align	2
 1535              		.set	.LANCHOR16,. + 0
 1538              	gui:
 1539 0000 00000000 		.space	140
 1539      00000000 
 1539      00000000 
 1539      00000000 
 1539      00000000 
 1540              		.section	.bss.joystick,"aw",%nobits
 1541              		.align	2
 1542              		.set	.LANCHOR11,. + 0
 1545              	joystick:
 1546 0000 00000000 		.space	40
 1546      00000000 
 1546      00000000 
 1546      00000000 
 1546      00000000 
 1547              		.section	.bss.joystick_out,"aw",%nobits
 1548              		.align	2
 1549              		.set	.LANCHOR12,. + 0
 1552              	joystick_out:
 1553 0000 00000000 		.space	8
 1553      00000000 
 1554              		.section	.bss.joystick_raw,"aw",%nobits
 1555              		.align	2
 1556              		.set	.LANCHOR10,. + 0
 1559              	joystick_raw:
 1560 0000 00000000 		.space	8
 1560      00000000 
 1561              		.section	.bss.ok,"aw",%nobits
 1562              		.align	2
 1563              		.set	.LANCHOR8,. + 0
 1566              	ok:
 1567 0000 00000000 		.space	12
 1567      00000000 
 1567      00000000 
 1568              		.section	.bss.rotations,"aw",%nobits
 1569              		.align	2
 1570              		.set	.LANCHOR15,. + 0
 1573              	rotations:
 1574 0000 00000000 		.space	4
 1575              		.section	.bss.score,"aw",%nobits
 1576              		.align	2
 1577              		.set	.LANCHOR2,. + 0
 1580              	score:
 1581 0000 00000000 		.space	4
 1582              		.section	.data.down,"aw"
 1583              		.align	2
 1584              		.set	.LANCHOR7,. + 0
 1587              	down:
ARM GAS  /tmp/ccPctUpA.s 			page 43


 1588 0000 03       		.byte	3
 1589 0001 000000   		.space	3
 1590 0004 00000000 		.word	0
 1591 0008 00000000 		.word	0
 1592              		.section	.data.esc,"aw"
 1593              		.align	2
 1594              		.set	.LANCHOR9,. + 0
 1597              	esc:
 1598 0000 01       		.byte	1
 1599 0001 000000   		.space	3
 1600 0004 00000000 		.word	0
 1601 0008 00000000 		.word	0
 1602              		.section	.data.left,"aw"
 1603              		.align	2
 1604              		.set	.LANCHOR5,. + 0
 1607              	left:
 1608 0000 05       		.byte	5
 1609 0001 000000   		.space	3
 1610 0004 00000000 		.word	0
 1611 0008 00000000 		.word	0
 1612              		.section	.data.p_x,"aw"
 1613              		.align	1
 1614              		.set	.LANCHOR14,. + 0
 1617              	p_x:
 1618 0000 3C00     		.short	60
 1619              		.section	.data.p_y,"aw"
 1620              		.align	1
 1621              		.set	.LANCHOR13,. + 0
 1624              	p_y:
 1625 0000 1400     		.short	20
 1626              		.section	.data.right,"aw"
 1627              		.align	2
 1628              		.set	.LANCHOR4,. + 0
 1631              	right:
 1632 0000 04       		.byte	4
 1633 0001 000000   		.space	3
 1634 0004 00000000 		.word	0
 1635 0008 00000000 		.word	0
 1636              		.section	.data.seed,"aw"
 1637              		.align	2
 1638              		.set	.LANCHOR3,. + 0
 1641              	seed:
 1642 0000 39300000 		.word	12345
 1643              		.section	.data.up,"aw"
 1644              		.align	2
 1645              		.set	.LANCHOR6,. + 0
 1648              	up:
 1649 0000 02       		.byte	2
 1650 0001 000000   		.space	3
 1651 0004 00000000 		.word	0
 1652 0008 00000000 		.word	0
 1653              		.text
 1654              	.Letext0:
 1655              		.file 3 "/usr/share/gcc-arm-none-eabi-10.3-2021.10/arm-none-eabi/include/machine/_default_types.h"
 1656              		.file 4 "/usr/share/gcc-arm-none-eabi-10.3-2021.10/arm-none-eabi/include/sys/_stdint.h"
 1657              		.file 5 "Drivers/CMSIS/Device/ST/STM32G4xx/Include/stm32g474xx.h"
 1658              		.file 6 "Drivers/CMSIS/Device/ST/STM32G4xx/Include/stm32g4xx.h"
ARM GAS  /tmp/ccPctUpA.s 			page 44


 1659              		.file 7 "Drivers/STM32G4xx_HAL_Driver/Inc/stm32g4xx_hal_def.h"
 1660              		.file 8 "Drivers/STM32G4xx_HAL_Driver/Inc/stm32g4xx_hal_rcc.h"
 1661              		.file 9 "Drivers/STM32G4xx_HAL_Driver/Inc/stm32g4xx_hal_dma.h"
 1662              		.file 10 "Drivers/STM32G4xx_HAL_Driver/Inc/stm32g4xx_hal_adc.h"
 1663              		.file 11 "Drivers/STM32G4xx_HAL_Driver/Inc/stm32g4xx_ll_tim.h"
 1664              		.file 12 "Drivers/STM32G4xx_HAL_Driver/Inc/stm32g4xx_ll_usart.h"
 1665              		.file 13 "Drivers/STM32G4xx_HAL_Driver/Inc/stm32g4xx_ll_dma.h"
 1666              		.file 14 "System/Include/kbd.h"
 1667              		.file 15 "Drivers/external/lcd_ili9341.h"
 1668              		.file 16 "Drivers/external/ugui_config.h"
 1669              		.file 17 "Drivers/external/ugui.h"
 1670              		.file 18 "Core/Inc/adc.h"
 1671              		.file 19 "Core/Inc/tetromino.h"
 1672              		.file 20 "Core/Inc/joystick.h"
 1673              		.file 21 "Drivers/STM32G4xx_HAL_Driver/Inc/stm32g4xx_hal_pwr_ex.h"
 1674              		.file 22 "Drivers/STM32G4xx_HAL_Driver/Inc/stm32g4xx_hal.h"
 1675              		.file 23 "Core/Inc/gpio.h"
 1676              		.file 24 "Core/Inc/dma.h"
 1677              		.file 25 "Core/Inc/fmc.h"
 1678              		.file 26 "Core/Inc/i2c.h"
 1679              		.file 27 "Core/Inc/usart.h"
 1680              		.file 28 "Core/Inc/quadspi.h"
 1681              		.file 29 "Core/Inc/spi.h"
 1682              		.file 30 "Core/Inc/tim.h"
 1683              		.file 31 "Core/Inc/dac.h"
 1684              		.file 32 "Core/Inc/fdcan.h"
 1685              		.file 33 "USB_Device/App/usb_device.h"
 1686              		.file 34 "Core/Inc/crc.h"
 1687              		.file 35 "System/Include/LED.h"
 1688              		.file 36 "System/Include/SCI.h"
 1689              		.file 37 "Drivers/external/lcd.h"
 1690              		.file 38 "/usr/share/gcc-arm-none-eabi-10.3-2021.10/arm-none-eabi/include/stdio.h"
 1691              		.file 39 "<built-in>"
ARM GAS  /tmp/ccPctUpA.s 			page 45

